	.text
	.def	@feat.00;
	.scl	3;
	.type	0;
	.endef
	.globl	@feat.00
.set @feat.00, 0
	.intel_syntax noprefix
	.file	"test.cpp"
	.def	"?calculation@@YA?A?<auto>@@HHH@Z";
	.scl	2;
	.type	32;
	.endef
	.globl	"?calculation@@YA?A?<auto>@@HHH@Z" # -- Begin function ?calculation@@YA?A?<auto>@@HHH@Z
	.p2align	4, 0x90
"?calculation@@YA?A?<auto>@@HHH@Z":     # @"?calculation@@YA?A?<auto>@@HHH@Z"
.Lfunc_begin0:
.seh_proc "?calculation@@YA?A?<auto>@@HHH@Z"
	.seh_handler __CxxFrameHandler3, @unwind, @except
# %bb.0:
	push	rbp
	.seh_pushreg rbp
	push	rbx
	.seh_pushreg rbx
	sub	rsp, 184
	.seh_stackalloc 184
	lea	rbp, [rsp + 128]
	.seh_setframe rbp, 128
	.seh_endprologue
	mov	qword ptr [rbp + 48], -2
	mov	dword ptr [rbp + 44], r8d
	mov	dword ptr [rbp + 40], edx
	mov	dword ptr [rbp + 36], ecx
	lea	rax, [rip + "??_C@_0DF@OEGBCDGP@?P?$JC?Q?$IF?P?$LO?P?$LE?P?$LN?Q?$IL?P?$LF?5?P?$LE?P?$LA?P?$LN?P?$LN?Q?$IL?P?$LF?3?5a?5?$DN@"]
	mov	qword ptr [rbp - 16], rax
	mov	qword ptr [rbp - 8], 52
	mov	rax, rsp
	lea	rcx, [rbp + 44]
	mov	qword ptr [rax + 32], rcx
	mov	rcx, rbp
	mov	qword ptr [rbp - 80], rcx       # 8-byte Spill
	lea	rdx, [rbp - 16]
	lea	r8, [rbp + 36]
	lea	r9, [rbp + 40]
	call	"??$format@AEAHAEAHAEAH@std@@YA?AV?$basic_string@DU?$char_traits@D@std@@V?$allocator@D@2@@0@U?$basic_format_string@DAEAHAEAHAEAH@0@AEAH11@Z"
	mov	rdx, qword ptr [rbp - 80]       # 8-byte Reload
.Ltmp0:
	lea	rcx, [rip + "?cout@std@@3V?$basic_ostream@DU?$char_traits@D@std@@@1@A"]
	call	"??$?6DU?$char_traits@D@std@@V?$allocator@D@1@@std@@YAAEAV?$basic_ostream@DU?$char_traits@D@std@@@0@AEAV10@AEBV?$basic_string@DU?$char_traits@D@std@@V?$allocator@D@2@@0@@Z"
.Ltmp1:
	jmp	.LBB0_1
.LBB0_1:
	mov	rcx, rbp
	call	"??1?$basic_string@DU?$char_traits@D@std@@V?$allocator@D@2@@std@@QEAA@XZ"
	#APP

	mov	eax, dword ptr [rbp + 36]
	imul	eax, eax, 5
	mov	ebx, dword ptr [rbp + 44]
	imul	ebx, dword ptr [rbp + 40]
	add	eax, ebx
	mov	dword ptr [rbp - 20], eax

	#NO_APP
	lea	rax, [rip + "??_C@_0BJ@HLOFGCGK@?P?$KA?P?$LF?P?$LH?Q?$ID?P?$LL?Q?$IM?Q?$IC?P?$LA?Q?$IC?5?$DN?5?$HL?$HN?6?$AA@"]
	mov	qword ptr [rbp - 72], rax
	mov	qword ptr [rbp - 64], 24
	lea	rcx, [rbp - 56]
	mov	qword ptr [rbp - 88], rcx       # 8-byte Spill
	lea	rdx, [rbp - 72]
	lea	r8, [rbp - 20]
	call	"??$format@AEAH@std@@YA?AV?$basic_string@DU?$char_traits@D@std@@V?$allocator@D@2@@0@U?$basic_format_string@DAEAH@0@AEAH@Z"
	mov	rdx, qword ptr [rbp - 88]       # 8-byte Reload
.Ltmp2:
	lea	rcx, [rip + "?cout@std@@3V?$basic_ostream@DU?$char_traits@D@std@@@1@A"]
	call	"??$?6DU?$char_traits@D@std@@V?$allocator@D@1@@std@@YAAEAV?$basic_ostream@DU?$char_traits@D@std@@@0@AEAV10@AEBV?$basic_string@DU?$char_traits@D@std@@V?$allocator@D@2@@0@@Z"
.Ltmp3:
	jmp	.LBB0_2
.LBB0_2:
	lea	rcx, [rbp - 56]
	call	"??1?$basic_string@DU?$char_traits@D@std@@V?$allocator@D@2@@std@@QEAA@XZ"
	mov	eax, dword ptr [rbp - 20]
	imul	ecx, dword ptr [rbp + 36], 5
	mov	edx, dword ptr [rbp + 40]
	imul	edx, dword ptr [rbp + 44]
	add	ecx, edx
	cmp	eax, ecx
	sete	al
	and	al, 1
	movzx	eax, al
	add	rsp, 184
	pop	rbx
	pop	rbp
	ret
	.seh_handlerdata
	.long	("$cppxdata$?calculation@@YA?A?<auto>@@HHH@Z")@IMGREL
	.text
	.seh_endproc
	.def	"?dtor$3@?0??calculation@@YA?A?<auto>@@HHH@Z@4HA";
	.scl	3;
	.type	32;
	.endef
	.p2align	4, 0x90
"?dtor$3@?0??calculation@@YA?A?<auto>@@HHH@Z@4HA":
.seh_proc "?dtor$3@?0??calculation@@YA?A?<auto>@@HHH@Z@4HA"
.LBB0_3:
	mov	qword ptr [rsp + 16], rdx
	push	rbp
	.seh_pushreg rbp
	push	rbx
	.seh_pushreg rbx
	sub	rsp, 40
	.seh_stackalloc 40
	lea	rbp, [rdx + 128]
	.seh_endprologue
	mov	rcx, rbp
	call	"??1?$basic_string@DU?$char_traits@D@std@@V?$allocator@D@2@@std@@QEAA@XZ"
	nop
	add	rsp, 40
	pop	rbx
	pop	rbp
	ret                                     # CLEANUPRET
	.seh_handlerdata
	.text
	.seh_endproc
	.def	"?dtor$4@?0??calculation@@YA?A?<auto>@@HHH@Z@4HA";
	.scl	3;
	.type	32;
	.endef
	.p2align	4, 0x90
"?dtor$4@?0??calculation@@YA?A?<auto>@@HHH@Z@4HA":
.seh_proc "?dtor$4@?0??calculation@@YA?A?<auto>@@HHH@Z@4HA"
.LBB0_4:
	mov	qword ptr [rsp + 16], rdx
	push	rbp
	.seh_pushreg rbp
	push	rbx
	.seh_pushreg rbx
	sub	rsp, 40
	.seh_stackalloc 40
	lea	rbp, [rdx + 128]
	.seh_endprologue
	lea	rcx, [rbp - 56]
	call	"??1?$basic_string@DU?$char_traits@D@std@@V?$allocator@D@2@@std@@QEAA@XZ"
	nop
	add	rsp, 40
	pop	rbx
	pop	rbp
	ret                                     # CLEANUPRET
.Lfunc_end0:
	.seh_handlerdata
	.text
	.seh_endproc
	.section	.xdata,"dr"
	.p2align	2
"$cppxdata$?calculation@@YA?A?<auto>@@HHH@Z":
	.long	429065506                       # MagicNumber
	.long	2                               # MaxState
	.long	("$stateUnwindMap$?calculation@@YA?A?<auto>@@HHH@Z")@IMGREL # UnwindMap
	.long	0                               # NumTryBlocks
	.long	0                               # TryBlockMap
	.long	5                               # IPMapEntries
	.long	("$ip2state$?calculation@@YA?A?<auto>@@HHH@Z")@IMGREL # IPToStateXData
	.long	176                             # UnwindHelp
	.long	0                               # ESTypeList
	.long	1                               # EHFlags
"$stateUnwindMap$?calculation@@YA?A?<auto>@@HHH@Z":
	.long	-1                              # ToState
	.long	"?dtor$3@?0??calculation@@YA?A?<auto>@@HHH@Z@4HA"@IMGREL # Action
	.long	-1                              # ToState
	.long	"?dtor$4@?0??calculation@@YA?A?<auto>@@HHH@Z@4HA"@IMGREL # Action
"$ip2state$?calculation@@YA?A?<auto>@@HHH@Z":
	.long	.Lfunc_begin0@IMGREL            # IP
	.long	-1                              # ToState
	.long	.Ltmp0@IMGREL+1                 # IP
	.long	0                               # ToState
	.long	.Ltmp1@IMGREL+1                 # IP
	.long	-1                              # ToState
	.long	.Ltmp2@IMGREL+1                 # IP
	.long	1                               # ToState
	.long	.Ltmp3@IMGREL+1                 # IP
	.long	-1                              # ToState
	.text
                                        # -- End function
	.def	"??$?6DU?$char_traits@D@std@@V?$allocator@D@1@@std@@YAAEAV?$basic_ostream@DU?$char_traits@D@std@@@0@AEAV10@AEBV?$basic_string@DU?$char_traits@D@std@@V?$allocator@D@2@@0@@Z";
	.scl	2;
	.type	32;
	.endef
	.section	.text,"xr",discard,"??$?6DU?$char_traits@D@std@@V?$allocator@D@1@@std@@YAAEAV?$basic_ostream@DU?$char_traits@D@std@@@0@AEAV10@AEBV?$basic_string@DU?$char_traits@D@std@@V?$allocator@D@2@@0@@Z"
	.globl	"??$?6DU?$char_traits@D@std@@V?$allocator@D@1@@std@@YAAEAV?$basic_ostream@DU?$char_traits@D@std@@@0@AEAV10@AEBV?$basic_string@DU?$char_traits@D@std@@V?$allocator@D@2@@0@@Z" # -- Begin function ??$?6DU?$char_traits@D@std@@V?$allocator@D@1@@std@@YAAEAV?$basic_ostream@DU?$char_traits@D@std@@@0@AEAV10@AEBV?$basic_string@DU?$char_traits@D@std@@V?$allocator@D@2@@0@@Z
	.p2align	4, 0x90
"??$?6DU?$char_traits@D@std@@V?$allocator@D@1@@std@@YAAEAV?$basic_ostream@DU?$char_traits@D@std@@@0@AEAV10@AEBV?$basic_string@DU?$char_traits@D@std@@V?$allocator@D@2@@0@@Z": # @"??$?6DU?$char_traits@D@std@@V?$allocator@D@1@@std@@YAAEAV?$basic_ostream@DU?$char_traits@D@std@@@0@AEAV10@AEBV?$basic_string@DU?$char_traits@D@std@@V?$allocator@D@2@@0@@Z"
.seh_proc "??$?6DU?$char_traits@D@std@@V?$allocator@D@1@@std@@YAAEAV?$basic_ostream@DU?$char_traits@D@std@@@0@AEAV10@AEBV?$basic_string@DU?$char_traits@D@std@@V?$allocator@D@2@@0@@Z"
# %bb.0:
	sub	rsp, 56
	.seh_stackalloc 56
	.seh_endprologue
	mov	qword ptr [rsp + 48], rdx
	mov	qword ptr [rsp + 40], rcx
	mov	rcx, qword ptr [rsp + 48]
	call	"?size@?$basic_string@DU?$char_traits@D@std@@V?$allocator@D@2@@std@@QEBA_KXZ"
	mov	qword ptr [rsp + 32], rax       # 8-byte Spill
	mov	rcx, qword ptr [rsp + 48]
	call	"?data@?$basic_string@DU?$char_traits@D@std@@V?$allocator@D@2@@std@@QEBAPEBDXZ"
	mov	r8, qword ptr [rsp + 32]        # 8-byte Reload
	mov	rdx, rax
	mov	rcx, qword ptr [rsp + 40]
	call	"??$_Insert_string@DU?$char_traits@D@std@@_K@std@@YAAEAV?$basic_ostream@DU?$char_traits@D@std@@@0@AEAV10@QEBD_K@Z"
	nop
	add	rsp, 56
	ret
	.seh_endproc
                                        # -- End function
	.def	"??$format@AEAHAEAHAEAH@std@@YA?AV?$basic_string@DU?$char_traits@D@std@@V?$allocator@D@2@@0@U?$basic_format_string@DAEAHAEAHAEAH@0@AEAH11@Z";
	.scl	2;
	.type	32;
	.endef
	.section	.text,"xr",discard,"??$format@AEAHAEAHAEAH@std@@YA?AV?$basic_string@DU?$char_traits@D@std@@V?$allocator@D@2@@0@U?$basic_format_string@DAEAHAEAHAEAH@0@AEAH11@Z"
	.globl	"??$format@AEAHAEAHAEAH@std@@YA?AV?$basic_string@DU?$char_traits@D@std@@V?$allocator@D@2@@0@U?$basic_format_string@DAEAHAEAHAEAH@0@AEAH11@Z" # -- Begin function ??$format@AEAHAEAHAEAH@std@@YA?AV?$basic_string@DU?$char_traits@D@std@@V?$allocator@D@2@@0@U?$basic_format_string@DAEAHAEAHAEAH@0@AEAH11@Z
	.p2align	4, 0x90
"??$format@AEAHAEAHAEAH@std@@YA?AV?$basic_string@DU?$char_traits@D@std@@V?$allocator@D@2@@0@U?$basic_format_string@DAEAHAEAHAEAH@0@AEAH11@Z": # @"??$format@AEAHAEAHAEAH@std@@YA?AV?$basic_string@DU?$char_traits@D@std@@V?$allocator@D@2@@0@U?$basic_format_string@DAEAHAEAHAEAH@0@AEAH11@Z"
.seh_proc "??$format@AEAHAEAHAEAH@std@@YA?AV?$basic_string@DU?$char_traits@D@std@@V?$allocator@D@2@@0@U?$basic_format_string@DAEAHAEAHAEAH@0@AEAH11@Z"
# %bb.0:
	sub	rsp, 152
	.seh_stackalloc 152
	.seh_endprologue
	mov	qword ptr [rsp + 32], rdx       # 8-byte Spill
	mov	qword ptr [rsp + 40], rcx       # 8-byte Spill
	mov	rax, rcx
	mov	qword ptr [rsp + 48], rax       # 8-byte Spill
	mov	rax, qword ptr [rsp + 192]
	mov	qword ptr [rsp + 144], rcx
	mov	qword ptr [rsp + 136], r9
	mov	qword ptr [rsp + 128], r8
	mov	r9, qword ptr [rsp + 192]
	mov	r8, qword ptr [rsp + 136]
	mov	rdx, qword ptr [rsp + 128]
	lea	rcx, [rsp + 72]
	call	"??$make_format_args@V?$basic_format_context@V?$back_insert_iterator@V?$_Fmt_buffer@D@std@@@std@@D@std@@AEAHAEAHAEAH@std@@YA?A?<auto>@@AEAH00@Z"
	lea	rcx, [rsp + 112]
	lea	rdx, [rsp + 72]
	call	"??$?0AEAHAEAHAEAH@?$basic_format_args@V?$basic_format_context@V?$back_insert_iterator@V?$_Fmt_buffer@D@std@@@std@@D@std@@@std@@QEAA@AEBV?$_Format_arg_store@V?$basic_format_context@V?$back_insert_iterator@V?$_Fmt_buffer@D@std@@@std@@D@std@@AEAHAEAHAEAH@1@@Z"
	mov	rcx, qword ptr [rsp + 32]       # 8-byte Reload
	lea	rdx, [rsp + 56]
	call	"?get@?$basic_format_string@DAEAHAEAHAEAH@std@@QEBA?AV?$basic_string_view@DU?$char_traits@D@std@@@2@XZ"
	mov	rcx, qword ptr [rsp + 40]       # 8-byte Reload
	lea	rdx, [rsp + 56]
	lea	r8, [rsp + 112]
	call	"??$vformat@$0A@@std@@YA?AV?$basic_string@DU?$char_traits@D@std@@V?$allocator@D@2@@0@V?$basic_string_view@DU?$char_traits@D@std@@@0@V?$basic_format_args@V?$basic_format_context@V?$back_insert_iterator@V?$_Fmt_buffer@D@std@@@std@@D@std@@@0@@Z"
	mov	rax, qword ptr [rsp + 48]       # 8-byte Reload
	add	rsp, 152
	ret
	.seh_endproc
                                        # -- End function
	.def	"??1?$basic_string@DU?$char_traits@D@std@@V?$allocator@D@2@@std@@QEAA@XZ";
	.scl	2;
	.type	32;
	.endef
	.section	.text,"xr",discard,"??1?$basic_string@DU?$char_traits@D@std@@V?$allocator@D@2@@std@@QEAA@XZ"
	.globl	"??1?$basic_string@DU?$char_traits@D@std@@V?$allocator@D@2@@std@@QEAA@XZ" # -- Begin function ??1?$basic_string@DU?$char_traits@D@std@@V?$allocator@D@2@@std@@QEAA@XZ
	.p2align	4, 0x90
"??1?$basic_string@DU?$char_traits@D@std@@V?$allocator@D@2@@std@@QEAA@XZ": # @"??1?$basic_string@DU?$char_traits@D@std@@V?$allocator@D@2@@std@@QEAA@XZ"
.seh_proc "??1?$basic_string@DU?$char_traits@D@std@@V?$allocator@D@2@@std@@QEAA@XZ"
# %bb.0:
	sub	rsp, 56
	.seh_stackalloc 56
	.seh_endprologue
	mov	qword ptr [rsp + 48], rcx
	mov	rcx, qword ptr [rsp + 48]
	mov	qword ptr [rsp + 40], rcx       # 8-byte Spill
	call	"?_Tidy_deallocate@?$basic_string@DU?$char_traits@D@std@@V?$allocator@D@2@@std@@AEAAXXZ"
	mov	rcx, qword ptr [rsp + 40]       # 8-byte Reload
	call	"??1?$_Compressed_pair@V?$allocator@D@std@@V?$_String_val@U?$_Simple_types@D@std@@@2@$00@std@@QEAA@XZ"
	nop
	add	rsp, 56
	ret
	.seh_endproc
                                        # -- End function
	.def	"??$format@AEAH@std@@YA?AV?$basic_string@DU?$char_traits@D@std@@V?$allocator@D@2@@0@U?$basic_format_string@DAEAH@0@AEAH@Z";
	.scl	2;
	.type	32;
	.endef
	.section	.text,"xr",discard,"??$format@AEAH@std@@YA?AV?$basic_string@DU?$char_traits@D@std@@V?$allocator@D@2@@0@U?$basic_format_string@DAEAH@0@AEAH@Z"
	.globl	"??$format@AEAH@std@@YA?AV?$basic_string@DU?$char_traits@D@std@@V?$allocator@D@2@@0@U?$basic_format_string@DAEAH@0@AEAH@Z" # -- Begin function ??$format@AEAH@std@@YA?AV?$basic_string@DU?$char_traits@D@std@@V?$allocator@D@2@@0@U?$basic_format_string@DAEAH@0@AEAH@Z
	.p2align	4, 0x90
"??$format@AEAH@std@@YA?AV?$basic_string@DU?$char_traits@D@std@@V?$allocator@D@2@@0@U?$basic_format_string@DAEAH@0@AEAH@Z": # @"??$format@AEAH@std@@YA?AV?$basic_string@DU?$char_traits@D@std@@V?$allocator@D@2@@0@U?$basic_format_string@DAEAH@0@AEAH@Z"
.seh_proc "??$format@AEAH@std@@YA?AV?$basic_string@DU?$char_traits@D@std@@V?$allocator@D@2@@0@U?$basic_format_string@DAEAH@0@AEAH@Z"
# %bb.0:
	sub	rsp, 120
	.seh_stackalloc 120
	.seh_endprologue
	mov	qword ptr [rsp + 32], rdx       # 8-byte Spill
	mov	qword ptr [rsp + 40], rcx       # 8-byte Spill
	mov	rax, rcx
	mov	qword ptr [rsp + 48], rax       # 8-byte Spill
	mov	qword ptr [rsp + 112], rcx
	mov	qword ptr [rsp + 104], r8
	mov	rdx, qword ptr [rsp + 104]
	lea	rcx, [rsp + 72]
	call	"??$make_format_args@V?$basic_format_context@V?$back_insert_iterator@V?$_Fmt_buffer@D@std@@@std@@D@std@@AEAH@std@@YA?A?<auto>@@AEAH@Z"
	lea	rcx, [rsp + 88]
	lea	rdx, [rsp + 72]
	call	"??$?0AEAH@?$basic_format_args@V?$basic_format_context@V?$back_insert_iterator@V?$_Fmt_buffer@D@std@@@std@@D@std@@@std@@QEAA@AEBV?$_Format_arg_store@V?$basic_format_context@V?$back_insert_iterator@V?$_Fmt_buffer@D@std@@@std@@D@std@@AEAH@1@@Z"
	mov	rcx, qword ptr [rsp + 32]       # 8-byte Reload
	lea	rdx, [rsp + 56]
	call	"?get@?$basic_format_string@DAEAH@std@@QEBA?AV?$basic_string_view@DU?$char_traits@D@std@@@2@XZ"
	mov	rcx, qword ptr [rsp + 40]       # 8-byte Reload
	lea	rdx, [rsp + 56]
	lea	r8, [rsp + 88]
	call	"??$vformat@$0A@@std@@YA?AV?$basic_string@DU?$char_traits@D@std@@V?$allocator@D@2@@0@V?$basic_string_view@DU?$char_traits@D@std@@@0@V?$basic_format_args@V?$basic_format_context@V?$back_insert_iterator@V?$_Fmt_buffer@D@std@@@std@@D@std@@@0@@Z"
	mov	rax, qword ptr [rsp + 48]       # 8-byte Reload
	add	rsp, 120
	ret
	.seh_endproc
                                        # -- End function
	.def	main;
	.scl	2;
	.type	32;
	.endef
	.text
	.globl	main                            # -- Begin function main
	.p2align	4, 0x90
main:                                   # @main
.Lfunc_begin1:
.seh_proc main
	.seh_handler __CxxFrameHandler3, @unwind, @except
# %bb.0:
	push	rbp
	.seh_pushreg rbp
	sub	rsp, 240
	.seh_stackalloc 240
	lea	rbp, [rsp + 128]
	.seh_setframe rbp, 128
	.seh_endprologue
	mov	qword ptr [rbp + 104], -2
	mov	dword ptr [rbp + 100], 0
	movups	xmm0, xmmword ptr [rip + .Lconstinit+64]
	movaps	xmmword ptr [rbp + 32], xmm0
	movups	xmm0, xmmword ptr [rip + .Lconstinit+48]
	movaps	xmmword ptr [rbp + 16], xmm0
	movups	xmm0, xmmword ptr [rip + .Lconstinit+32]
	movaps	xmmword ptr [rbp], xmm0
	movups	xmm0, xmmword ptr [rip + .Lconstinit+16]
	movaps	xmmword ptr [rbp - 16], xmm0
	movups	xmm0, xmmword ptr [rip + .Lconstinit]
	movaps	xmmword ptr [rbp - 32], xmm0
	mov	dword ptr [rbp + 48], 1
	lea	rax, [rbp - 32]
	mov	qword ptr [rbp + 56], rax
	lea	rax, [rbp + 52]
	mov	qword ptr [rbp + 64], rax
	lea	rcx, [rbp - 40]
	mov	qword ptr [rbp - 96], rcx       # 8-byte Spill
	call	"??0?$allocator@V?$array@H$02@std@@@std@@QEAA@XZ"
	mov	r8, qword ptr [rbp - 96]        # 8-byte Reload
	lea	rcx, [rbp + 72]
	mov	qword ptr [rbp - 88], rcx       # 8-byte Spill
	lea	rdx, [rbp + 56]
	call	"??0?$vector@V?$array@H$02@std@@V?$allocator@V?$array@H$02@std@@@2@@std@@QEAA@V?$initializer_list@V?$array@H$02@std@@@1@AEBV?$allocator@V?$array@H$02@std@@@1@@Z"
	mov	rcx, qword ptr [rbp - 88]       # 8-byte Reload
	mov	dword ptr [rbp - 44], 0
	lea	rax, [rbp - 44]
	mov	qword ptr [rbp - 56], rax
	lea	rdx, [rbp - 64]
	call	"?cend@?$vector@V?$array@H$02@std@@V?$allocator@V?$array@H$02@std@@@2@@std@@QEBA?AV?$_Vector_const_iterator@V?$_Vector_val@U?$_Simple_types@V?$array@H$02@std@@@std@@@std@@@2@XZ"
	mov	rcx, qword ptr [rbp - 88]       # 8-byte Reload
	lea	rdx, [rbp - 72]
	call	"?cbegin@?$vector@V?$array@H$02@std@@V?$allocator@V?$array@H$02@std@@@2@@std@@QEBA?AV?$_Vector_const_iterator@V?$_Vector_val@U?$_Simple_types@V?$array@H$02@std@@@std@@@std@@@2@XZ"
	mov	rdx, qword ptr [rbp - 72]
	mov	r8, qword ptr [rbp - 64]
	mov	r9, qword ptr [rbp - 56]
.Ltmp4:
	lea	rcx, [rbp - 80]
	call	"??$for_each@V?$_Vector_const_iterator@V?$_Vector_val@U?$_Simple_types@V?$array@H$02@std@@@std@@@std@@@std@@V<lambda_0>@?0??main@@9@@std@@YA?AV<lambda_0>@?0??main@@9@V?$_Vector_const_iterator@V?$_Vector_val@U?$_Simple_types@V?$array@H$02@std@@@std@@@std@@@0@0V1?0??2@9@@Z"
.Ltmp5:
	jmp	.LBB5_1
.LBB5_1:
	mov	dword ptr [rbp + 100], 0
	lea	rcx, [rbp + 72]
	call	"??1?$vector@V?$array@H$02@std@@V?$allocator@V?$array@H$02@std@@@2@@std@@QEAA@XZ"
	mov	eax, dword ptr [rbp + 100]
	add	rsp, 240
	pop	rbp
	ret
	.seh_handlerdata
	.long	($cppxdata$main)@IMGREL
	.text
	.seh_endproc
	.def	"?dtor$2@?0?main@4HA";
	.scl	3;
	.type	32;
	.endef
	.p2align	4, 0x90
"?dtor$2@?0?main@4HA":
.seh_proc "?dtor$2@?0?main@4HA"
.LBB5_2:
	mov	qword ptr [rsp + 16], rdx
	push	rbp
	.seh_pushreg rbp
	sub	rsp, 32
	.seh_stackalloc 32
	lea	rbp, [rdx + 128]
	.seh_endprologue
	lea	rcx, [rbp + 72]
	call	"??1?$vector@V?$array@H$02@std@@V?$allocator@V?$array@H$02@std@@@2@@std@@QEAA@XZ"
	nop
	add	rsp, 32
	pop	rbp
	ret                                     # CLEANUPRET
.Lfunc_end1:
	.seh_handlerdata
	.text
	.seh_endproc
	.section	.xdata,"dr"
	.p2align	2
$cppxdata$main:
	.long	429065506                       # MagicNumber
	.long	1                               # MaxState
	.long	($stateUnwindMap$main)@IMGREL   # UnwindMap
	.long	0                               # NumTryBlocks
	.long	0                               # TryBlockMap
	.long	3                               # IPMapEntries
	.long	($ip2state$main)@IMGREL         # IPToStateXData
	.long	232                             # UnwindHelp
	.long	0                               # ESTypeList
	.long	1                               # EHFlags
$stateUnwindMap$main:
	.long	-1                              # ToState
	.long	"?dtor$2@?0?main@4HA"@IMGREL    # Action
$ip2state$main:
	.long	.Lfunc_begin1@IMGREL            # IP
	.long	-1                              # ToState
	.long	.Ltmp4@IMGREL+1                 # IP
	.long	0                               # ToState
	.long	.Ltmp5@IMGREL+1                 # IP
	.long	-1                              # ToState
	.text
                                        # -- End function
	.def	"??0?$allocator@V?$array@H$02@std@@@std@@QEAA@XZ";
	.scl	2;
	.type	32;
	.endef
	.section	.text,"xr",discard,"??0?$allocator@V?$array@H$02@std@@@std@@QEAA@XZ"
	.globl	"??0?$allocator@V?$array@H$02@std@@@std@@QEAA@XZ" # -- Begin function ??0?$allocator@V?$array@H$02@std@@@std@@QEAA@XZ
	.p2align	4, 0x90
"??0?$allocator@V?$array@H$02@std@@@std@@QEAA@XZ": # @"??0?$allocator@V?$array@H$02@std@@@std@@QEAA@XZ"
.seh_proc "??0?$allocator@V?$array@H$02@std@@@std@@QEAA@XZ"
# %bb.0:
	push	rax
	.seh_stackalloc 8
	.seh_endprologue
	mov	qword ptr [rsp], rcx
	mov	rax, qword ptr [rsp]
	pop	rcx
	ret
	.seh_endproc
                                        # -- End function
	.def	"??0?$vector@V?$array@H$02@std@@V?$allocator@V?$array@H$02@std@@@2@@std@@QEAA@V?$initializer_list@V?$array@H$02@std@@@1@AEBV?$allocator@V?$array@H$02@std@@@1@@Z";
	.scl	2;
	.type	32;
	.endef
	.section	.text,"xr",discard,"??0?$vector@V?$array@H$02@std@@V?$allocator@V?$array@H$02@std@@@2@@std@@QEAA@V?$initializer_list@V?$array@H$02@std@@@1@AEBV?$allocator@V?$array@H$02@std@@@1@@Z"
	.globl	"??0?$vector@V?$array@H$02@std@@V?$allocator@V?$array@H$02@std@@@2@@std@@QEAA@V?$initializer_list@V?$array@H$02@std@@@1@AEBV?$allocator@V?$array@H$02@std@@@1@@Z" # -- Begin function ??0?$vector@V?$array@H$02@std@@V?$allocator@V?$array@H$02@std@@@2@@std@@QEAA@V?$initializer_list@V?$array@H$02@std@@@1@AEBV?$allocator@V?$array@H$02@std@@@1@@Z
	.p2align	4, 0x90
"??0?$vector@V?$array@H$02@std@@V?$allocator@V?$array@H$02@std@@@2@@std@@QEAA@V?$initializer_list@V?$array@H$02@std@@@1@AEBV?$allocator@V?$array@H$02@std@@@1@@Z": # @"??0?$vector@V?$array@H$02@std@@V?$allocator@V?$array@H$02@std@@@2@@std@@QEAA@V?$initializer_list@V?$array@H$02@std@@@1@AEBV?$allocator@V?$array@H$02@std@@@1@@Z"
.seh_proc "??0?$vector@V?$array@H$02@std@@V?$allocator@V?$array@H$02@std@@@2@@std@@QEAA@V?$initializer_list@V?$array@H$02@std@@@1@AEBV?$allocator@V?$array@H$02@std@@@1@@Z"
# %bb.0:
	sub	rsp, 88
	.seh_stackalloc 88
	.seh_endprologue
	mov	qword ptr [rsp + 32], rdx       # 8-byte Spill
	mov	qword ptr [rsp + 80], r8
	mov	qword ptr [rsp + 72], rcx
	mov	rcx, qword ptr [rsp + 72]
	mov	qword ptr [rsp + 40], rcx       # 8-byte Spill
	mov	r8, qword ptr [rsp + 80]
	mov	dl, byte ptr [rsp + 64]
	call	"??$?0AEBV?$allocator@V?$array@H$02@std@@@std@@$$V@?$_Compressed_pair@V?$allocator@V?$array@H$02@std@@@std@@V?$_Vector_val@U?$_Simple_types@V?$array@H$02@std@@@std@@@2@$00@std@@QEAA@U_One_then_variadic_args_t@1@AEBV?$allocator@V?$array@H$02@std@@@1@@Z"
	mov	rcx, qword ptr [rsp + 32]       # 8-byte Reload
	call	"?end@?$initializer_list@V?$array@H$02@std@@@std@@QEBAPEBV?$array@H$02@2@XZ"
	mov	rcx, qword ptr [rsp + 32]       # 8-byte Reload
	mov	qword ptr [rsp + 56], rax
	call	"?begin@?$initializer_list@V?$array@H$02@std@@@std@@QEBAPEBV?$array@H$02@2@XZ"
	mov	rcx, qword ptr [rsp + 32]       # 8-byte Reload
	mov	qword ptr [rsp + 48], rax
	call	"?size@?$initializer_list@V?$array@H$02@std@@@std@@QEBA_KXZ"
	mov	rcx, rax
	call	"??$_Convert_size@_K_K@std@@YA_K_K@Z"
	mov	rcx, qword ptr [rsp + 40]       # 8-byte Reload
	mov	rdx, rax
	lea	r8, [rsp + 48]
	lea	r9, [rsp + 56]
	call	"??$_Construct_n@PEBV?$array@H$02@std@@PEBV12@@?$vector@V?$array@H$02@std@@V?$allocator@V?$array@H$02@std@@@2@@std@@AEAAX_K$$QEAPEBV?$array@H$02@1@1@Z"
	mov	rax, qword ptr [rsp + 40]       # 8-byte Reload
	add	rsp, 88
	ret
	.seh_endproc
                                        # -- End function
	.def	"??$for_each@V?$_Vector_const_iterator@V?$_Vector_val@U?$_Simple_types@V?$array@H$02@std@@@std@@@std@@@std@@V<lambda_0>@?0??main@@9@@std@@YA?AV<lambda_0>@?0??main@@9@V?$_Vector_const_iterator@V?$_Vector_val@U?$_Simple_types@V?$array@H$02@std@@@std@@@std@@@0@0V1?0??2@9@@Z";
	.scl	3;
	.type	32;
	.endef
	.text
	.p2align	4, 0x90                         # -- Begin function ??$for_each@V?$_Vector_const_iterator@V?$_Vector_val@U?$_Simple_types@V?$array@H$02@std@@@std@@@std@@@std@@V<lambda_0>@?0??main@@9@@std@@YA?AV<lambda_0>@?0??main@@9@V?$_Vector_const_iterator@V?$_Vector_val@U?$_Simple_types@V?$array@H$02@std@@@std@@@std@@@0@0V1?0??2@9@@Z
"??$for_each@V?$_Vector_const_iterator@V?$_Vector_val@U?$_Simple_types@V?$array@H$02@std@@@std@@@std@@@std@@V<lambda_0>@?0??main@@9@@std@@YA?AV<lambda_0>@?0??main@@9@V?$_Vector_const_iterator@V?$_Vector_val@U?$_Simple_types@V?$array@H$02@std@@@std@@@std@@@0@0V1?0??2@9@@Z": # @"??$for_each@V?$_Vector_const_iterator@V?$_Vector_val@U?$_Simple_types@V?$array@H$02@std@@@std@@@std@@@std@@V<lambda_0>@?0??main@@9@@std@@YA?AV<lambda_0>@?0??main@@9@V?$_Vector_const_iterator@V?$_Vector_val@U?$_Simple_types@V?$array@H$02@std@@@std@@@std@@@0@0V1?0??2@9@@Z"
.seh_proc "??$for_each@V?$_Vector_const_iterator@V?$_Vector_val@U?$_Simple_types@V?$array@H$02@std@@@std@@@std@@@std@@V<lambda_0>@?0??main@@9@@std@@YA?AV<lambda_0>@?0??main@@9@V?$_Vector_const_iterator@V?$_Vector_val@U?$_Simple_types@V?$array@H$02@std@@@std@@@std@@@0@0V1?0??2@9@@Z"
# %bb.0:
	sub	rsp, 104
	.seh_stackalloc 104
	.seh_endprologue
	mov	qword ptr [rsp + 40], rcx       # 8-byte Spill
	mov	rax, rcx
	mov	qword ptr [rsp + 48], rax       # 8-byte Spill
	mov	qword ptr [rsp + 96], rcx
	mov	qword ptr [rsp + 88], rdx
	mov	qword ptr [rsp + 80], r8
	mov	qword ptr [rsp + 72], r9
	lea	rcx, [rsp + 88]
	lea	rdx, [rsp + 80]
	call	"??$_Adl_verify_range@V?$_Vector_const_iterator@V?$_Vector_val@U?$_Simple_types@V?$array@H$02@std@@@std@@@std@@@std@@V12@@std@@YAXAEBV?$_Vector_const_iterator@V?$_Vector_val@U?$_Simple_types@V?$array@H$02@std@@@std@@@std@@@0@0@Z"
	lea	rcx, [rsp + 88]
	call	"??$_Get_unwrapped@AEAV?$_Vector_const_iterator@V?$_Vector_val@U?$_Simple_types@V?$array@H$02@std@@@std@@@std@@@std@@@std@@YA?A?<decltype-auto>@@AEAV?$_Vector_const_iterator@V?$_Vector_val@U?$_Simple_types@V?$array@H$02@std@@@std@@@std@@@0@@Z"
	mov	qword ptr [rsp + 64], rax
	lea	rcx, [rsp + 80]
	call	"??$_Get_unwrapped@AEAV?$_Vector_const_iterator@V?$_Vector_val@U?$_Simple_types@V?$array@H$02@std@@@std@@@std@@@std@@@std@@YA?A?<decltype-auto>@@AEAV?$_Vector_const_iterator@V?$_Vector_val@U?$_Simple_types@V?$array@H$02@std@@@std@@@std@@@0@@Z"
	mov	qword ptr [rsp + 56], rax
.LBB8_1:                                # =>This Inner Loop Header: Depth=1
	mov	rax, qword ptr [rsp + 64]
	cmp	rax, qword ptr [rsp + 56]
	je	.LBB8_4
# %bb.2:                                #   in Loop: Header=BB8_1 Depth=1
	mov	rdx, qword ptr [rsp + 64]
	lea	rcx, [rsp + 72]
	call	"??$?RV?$array@H$02@std@@@<lambda_0>@?0??main@@9@QEBA?A?<auto>@@AEBV?$array@H$02@std@@@Z"
# %bb.3:                                #   in Loop: Header=BB8_1 Depth=1
	mov	rax, qword ptr [rsp + 64]
	add	rax, 12
	mov	qword ptr [rsp + 64], rax
	jmp	.LBB8_1
.LBB8_4:
	mov	rax, qword ptr [rsp + 48]       # 8-byte Reload
	mov	rcx, qword ptr [rsp + 40]       # 8-byte Reload
	mov	rdx, qword ptr [rsp + 72]
	mov	qword ptr [rcx], rdx
	add	rsp, 104
	ret
	.seh_endproc
                                        # -- End function
	.def	"?cend@?$vector@V?$array@H$02@std@@V?$allocator@V?$array@H$02@std@@@2@@std@@QEBA?AV?$_Vector_const_iterator@V?$_Vector_val@U?$_Simple_types@V?$array@H$02@std@@@std@@@std@@@2@XZ";
	.scl	2;
	.type	32;
	.endef
	.section	.text,"xr",discard,"?cend@?$vector@V?$array@H$02@std@@V?$allocator@V?$array@H$02@std@@@2@@std@@QEBA?AV?$_Vector_const_iterator@V?$_Vector_val@U?$_Simple_types@V?$array@H$02@std@@@std@@@std@@@2@XZ"
	.globl	"?cend@?$vector@V?$array@H$02@std@@V?$allocator@V?$array@H$02@std@@@2@@std@@QEBA?AV?$_Vector_const_iterator@V?$_Vector_val@U?$_Simple_types@V?$array@H$02@std@@@std@@@std@@@2@XZ" # -- Begin function ?cend@?$vector@V?$array@H$02@std@@V?$allocator@V?$array@H$02@std@@@2@@std@@QEBA?AV?$_Vector_const_iterator@V?$_Vector_val@U?$_Simple_types@V?$array@H$02@std@@@std@@@std@@@2@XZ
	.p2align	4, 0x90
"?cend@?$vector@V?$array@H$02@std@@V?$allocator@V?$array@H$02@std@@@2@@std@@QEBA?AV?$_Vector_const_iterator@V?$_Vector_val@U?$_Simple_types@V?$array@H$02@std@@@std@@@std@@@2@XZ": # @"?cend@?$vector@V?$array@H$02@std@@V?$allocator@V?$array@H$02@std@@@2@@std@@QEBA?AV?$_Vector_const_iterator@V?$_Vector_val@U?$_Simple_types@V?$array@H$02@std@@@std@@@std@@@2@XZ"
.seh_proc "?cend@?$vector@V?$array@H$02@std@@V?$allocator@V?$array@H$02@std@@@2@@std@@QEBA?AV?$_Vector_const_iterator@V?$_Vector_val@U?$_Simple_types@V?$array@H$02@std@@@std@@@std@@@2@XZ"
# %bb.0:
	sub	rsp, 56
	.seh_stackalloc 56
	.seh_endprologue
	mov	rax, rdx
	mov	qword ptr [rsp + 32], rax       # 8-byte Spill
	mov	qword ptr [rsp + 48], rdx
	mov	qword ptr [rsp + 40], rcx
	mov	rcx, qword ptr [rsp + 40]
	call	"?end@?$vector@V?$array@H$02@std@@V?$allocator@V?$array@H$02@std@@@2@@std@@QEBA?AV?$_Vector_const_iterator@V?$_Vector_val@U?$_Simple_types@V?$array@H$02@std@@@std@@@std@@@2@XZ"
	mov	rax, qword ptr [rsp + 32]       # 8-byte Reload
	add	rsp, 56
	ret
	.seh_endproc
                                        # -- End function
	.def	"?cbegin@?$vector@V?$array@H$02@std@@V?$allocator@V?$array@H$02@std@@@2@@std@@QEBA?AV?$_Vector_const_iterator@V?$_Vector_val@U?$_Simple_types@V?$array@H$02@std@@@std@@@std@@@2@XZ";
	.scl	2;
	.type	32;
	.endef
	.section	.text,"xr",discard,"?cbegin@?$vector@V?$array@H$02@std@@V?$allocator@V?$array@H$02@std@@@2@@std@@QEBA?AV?$_Vector_const_iterator@V?$_Vector_val@U?$_Simple_types@V?$array@H$02@std@@@std@@@std@@@2@XZ"
	.globl	"?cbegin@?$vector@V?$array@H$02@std@@V?$allocator@V?$array@H$02@std@@@2@@std@@QEBA?AV?$_Vector_const_iterator@V?$_Vector_val@U?$_Simple_types@V?$array@H$02@std@@@std@@@std@@@2@XZ" # -- Begin function ?cbegin@?$vector@V?$array@H$02@std@@V?$allocator@V?$array@H$02@std@@@2@@std@@QEBA?AV?$_Vector_const_iterator@V?$_Vector_val@U?$_Simple_types@V?$array@H$02@std@@@std@@@std@@@2@XZ
	.p2align	4, 0x90
"?cbegin@?$vector@V?$array@H$02@std@@V?$allocator@V?$array@H$02@std@@@2@@std@@QEBA?AV?$_Vector_const_iterator@V?$_Vector_val@U?$_Simple_types@V?$array@H$02@std@@@std@@@std@@@2@XZ": # @"?cbegin@?$vector@V?$array@H$02@std@@V?$allocator@V?$array@H$02@std@@@2@@std@@QEBA?AV?$_Vector_const_iterator@V?$_Vector_val@U?$_Simple_types@V?$array@H$02@std@@@std@@@std@@@2@XZ"
.seh_proc "?cbegin@?$vector@V?$array@H$02@std@@V?$allocator@V?$array@H$02@std@@@2@@std@@QEBA?AV?$_Vector_const_iterator@V?$_Vector_val@U?$_Simple_types@V?$array@H$02@std@@@std@@@std@@@2@XZ"
# %bb.0:
	sub	rsp, 56
	.seh_stackalloc 56
	.seh_endprologue
	mov	rax, rdx
	mov	qword ptr [rsp + 32], rax       # 8-byte Spill
	mov	qword ptr [rsp + 48], rdx
	mov	qword ptr [rsp + 40], rcx
	mov	rcx, qword ptr [rsp + 40]
	call	"?begin@?$vector@V?$array@H$02@std@@V?$allocator@V?$array@H$02@std@@@2@@std@@QEBA?AV?$_Vector_const_iterator@V?$_Vector_val@U?$_Simple_types@V?$array@H$02@std@@@std@@@std@@@2@XZ"
	mov	rax, qword ptr [rsp + 32]       # 8-byte Reload
	add	rsp, 56
	ret
	.seh_endproc
                                        # -- End function
	.def	"??1?$vector@V?$array@H$02@std@@V?$allocator@V?$array@H$02@std@@@2@@std@@QEAA@XZ";
	.scl	2;
	.type	32;
	.endef
	.section	.text,"xr",discard,"??1?$vector@V?$array@H$02@std@@V?$allocator@V?$array@H$02@std@@@2@@std@@QEAA@XZ"
	.globl	"??1?$vector@V?$array@H$02@std@@V?$allocator@V?$array@H$02@std@@@2@@std@@QEAA@XZ" # -- Begin function ??1?$vector@V?$array@H$02@std@@V?$allocator@V?$array@H$02@std@@@2@@std@@QEAA@XZ
	.p2align	4, 0x90
"??1?$vector@V?$array@H$02@std@@V?$allocator@V?$array@H$02@std@@@2@@std@@QEAA@XZ": # @"??1?$vector@V?$array@H$02@std@@V?$allocator@V?$array@H$02@std@@@2@@std@@QEAA@XZ"
.seh_proc "??1?$vector@V?$array@H$02@std@@V?$allocator@V?$array@H$02@std@@@2@@std@@QEAA@XZ"
# %bb.0:
	sub	rsp, 40
	.seh_stackalloc 40
	.seh_endprologue
	mov	qword ptr [rsp + 32], rcx
	mov	rcx, qword ptr [rsp + 32]
	call	"?_Tidy@?$vector@V?$array@H$02@std@@V?$allocator@V?$array@H$02@std@@@2@@std@@AEAAXXZ"
	nop
	add	rsp, 40
	ret
	.seh_endproc
                                        # -- End function
	.def	"??__E?id@?$numpunct@D@std@@2V0locale@2@A@@YAXXZ";
	.scl	2;
	.type	32;
	.endef
	.section	.text,"xr",discard,"??__E?id@?$numpunct@D@std@@2V0locale@2@A@@YAXXZ"
	.globl	"??__E?id@?$numpunct@D@std@@2V0locale@2@A@@YAXXZ" # -- Begin function ??__E?id@?$numpunct@D@std@@2V0locale@2@A@@YAXXZ
	.p2align	4, 0x90
"??__E?id@?$numpunct@D@std@@2V0locale@2@A@@YAXXZ": # @"??__E?id@?$numpunct@D@std@@2V0locale@2@A@@YAXXZ"
.seh_proc "??__E?id@?$numpunct@D@std@@2V0locale@2@A@@YAXXZ"
# %bb.0:
	sub	rsp, 40
	.seh_stackalloc 40
	.seh_endprologue
	lea	rcx, [rip + "?id@?$numpunct@D@std@@2V0locale@2@A"]
	xor	eax, eax
	mov	edx, eax
	call	"??0id@locale@std@@QEAA@_K@Z"
	nop
	add	rsp, 40
	ret
	.seh_endproc
                                        # -- End function
	.def	"??0id@locale@std@@QEAA@_K@Z";
	.scl	2;
	.type	32;
	.endef
	.section	.text,"xr",discard,"??0id@locale@std@@QEAA@_K@Z"
	.globl	"??0id@locale@std@@QEAA@_K@Z"   # -- Begin function ??0id@locale@std@@QEAA@_K@Z
	.p2align	4, 0x90
"??0id@locale@std@@QEAA@_K@Z":          # @"??0id@locale@std@@QEAA@_K@Z"
.seh_proc "??0id@locale@std@@QEAA@_K@Z"
# %bb.0:
	sub	rsp, 16
	.seh_stackalloc 16
	.seh_endprologue
	mov	qword ptr [rsp + 8], rdx
	mov	qword ptr [rsp], rcx
	mov	rax, qword ptr [rsp]
	mov	rcx, qword ptr [rsp + 8]
	mov	qword ptr [rax], rcx
	add	rsp, 16
	ret
	.seh_endproc
                                        # -- End function
	.def	"?_Tidy_deallocate@?$basic_string@DU?$char_traits@D@std@@V?$allocator@D@2@@std@@AEAAXXZ";
	.scl	2;
	.type	32;
	.endef
	.section	.text,"xr",discard,"?_Tidy_deallocate@?$basic_string@DU?$char_traits@D@std@@V?$allocator@D@2@@std@@AEAAXXZ"
	.globl	"?_Tidy_deallocate@?$basic_string@DU?$char_traits@D@std@@V?$allocator@D@2@@std@@AEAAXXZ" # -- Begin function ?_Tidy_deallocate@?$basic_string@DU?$char_traits@D@std@@V?$allocator@D@2@@std@@AEAAXXZ
	.p2align	4, 0x90
"?_Tidy_deallocate@?$basic_string@DU?$char_traits@D@std@@V?$allocator@D@2@@std@@AEAAXXZ": # @"?_Tidy_deallocate@?$basic_string@DU?$char_traits@D@std@@V?$allocator@D@2@@std@@AEAAXXZ"
.seh_proc "?_Tidy_deallocate@?$basic_string@DU?$char_traits@D@std@@V?$allocator@D@2@@std@@AEAAXXZ"
# %bb.0:
	sub	rsp, 88
	.seh_stackalloc 88
	.seh_endprologue
	mov	qword ptr [rsp + 80], rcx
	mov	rax, qword ptr [rsp + 80]
	mov	qword ptr [rsp + 40], rax       # 8-byte Spill
	mov	qword ptr [rsp + 72], rax
	mov	rcx, qword ptr [rsp + 72]
	call	"?_Orphan_all@_Container_base0@std@@QEAAXXZ"
	mov	rcx, qword ptr [rsp + 72]
	call	"?_Large_string_engaged@?$_String_val@U?$_Simple_types@D@std@@@std@@QEBA_NXZ"
	test	al, 1
	jne	.LBB14_1
	jmp	.LBB14_2
.LBB14_1:
	mov	rcx, qword ptr [rsp + 40]       # 8-byte Reload
	mov	rax, qword ptr [rsp + 72]
	mov	rax, qword ptr [rax]
	mov	qword ptr [rsp + 64], rax
	call	"?_Getal@?$basic_string@DU?$char_traits@D@std@@V?$allocator@D@2@@std@@AEAAAEAV?$allocator@D@2@XZ"
	mov	qword ptr [rsp + 56], rax
	mov	rcx, qword ptr [rsp + 72]
	call	"??$_Destroy_in_place@PEAD@std@@YAXAEAPEAD@Z"
	mov	rcx, qword ptr [rsp + 72]
	call	"?_Activate_SSO_buffer@?$_String_val@U?$_Simple_types@D@std@@@std@@QEAAXXZ"
	mov	rcx, qword ptr [rsp + 56]
	mov	rax, qword ptr [rsp + 72]
	mov	r8, qword ptr [rax + 24]
	add	r8, 1
	mov	rdx, qword ptr [rsp + 64]
	call	"?deallocate@?$allocator@D@std@@QEAAXQEAD_K@Z"
.LBB14_2:
	mov	rax, qword ptr [rsp + 72]
	mov	qword ptr [rax + 16], 0
	mov	rax, qword ptr [rsp + 72]
	mov	qword ptr [rax + 24], 15
	mov	byte ptr [rsp + 55], 0
	mov	rcx, qword ptr [rsp + 72]
	lea	rdx, [rsp + 55]
	call	"?assign@?$_Narrow_char_traits@DH@std@@SAXAEADAEBD@Z"
	nop
	add	rsp, 88
	ret
	.seh_endproc
                                        # -- End function
	.def	"??1?$_Compressed_pair@V?$allocator@D@std@@V?$_String_val@U?$_Simple_types@D@std@@@2@$00@std@@QEAA@XZ";
	.scl	2;
	.type	32;
	.endef
	.section	.text,"xr",discard,"??1?$_Compressed_pair@V?$allocator@D@std@@V?$_String_val@U?$_Simple_types@D@std@@@2@$00@std@@QEAA@XZ"
	.globl	"??1?$_Compressed_pair@V?$allocator@D@std@@V?$_String_val@U?$_Simple_types@D@std@@@2@$00@std@@QEAA@XZ" # -- Begin function ??1?$_Compressed_pair@V?$allocator@D@std@@V?$_String_val@U?$_Simple_types@D@std@@@2@$00@std@@QEAA@XZ
	.p2align	4, 0x90
"??1?$_Compressed_pair@V?$allocator@D@std@@V?$_String_val@U?$_Simple_types@D@std@@@2@$00@std@@QEAA@XZ": # @"??1?$_Compressed_pair@V?$allocator@D@std@@V?$_String_val@U?$_Simple_types@D@std@@@2@$00@std@@QEAA@XZ"
.seh_proc "??1?$_Compressed_pair@V?$allocator@D@std@@V?$_String_val@U?$_Simple_types@D@std@@@2@$00@std@@QEAA@XZ"
# %bb.0:
	sub	rsp, 40
	.seh_stackalloc 40
	.seh_endprologue
	mov	qword ptr [rsp + 32], rcx
	mov	rcx, qword ptr [rsp + 32]
	call	"??1?$_String_val@U?$_Simple_types@D@std@@@std@@QEAA@XZ"
	nop
	add	rsp, 40
	ret
	.seh_endproc
                                        # -- End function
	.def	"?_Orphan_all@_Container_base0@std@@QEAAXXZ";
	.scl	2;
	.type	32;
	.endef
	.section	.text,"xr",discard,"?_Orphan_all@_Container_base0@std@@QEAAXXZ"
	.globl	"?_Orphan_all@_Container_base0@std@@QEAAXXZ" # -- Begin function ?_Orphan_all@_Container_base0@std@@QEAAXXZ
	.p2align	4, 0x90
"?_Orphan_all@_Container_base0@std@@QEAAXXZ": # @"?_Orphan_all@_Container_base0@std@@QEAAXXZ"
.seh_proc "?_Orphan_all@_Container_base0@std@@QEAAXXZ"
# %bb.0:
	push	rax
	.seh_stackalloc 8
	.seh_endprologue
	mov	qword ptr [rsp], rcx
	pop	rax
	ret
	.seh_endproc
                                        # -- End function
	.def	"?_Large_string_engaged@?$_String_val@U?$_Simple_types@D@std@@@std@@QEBA_NXZ";
	.scl	2;
	.type	32;
	.endef
	.section	.text,"xr",discard,"?_Large_string_engaged@?$_String_val@U?$_Simple_types@D@std@@@std@@QEBA_NXZ"
	.globl	"?_Large_string_engaged@?$_String_val@U?$_Simple_types@D@std@@@std@@QEBA_NXZ" # -- Begin function ?_Large_string_engaged@?$_String_val@U?$_Simple_types@D@std@@@std@@QEBA_NXZ
	.p2align	4, 0x90
"?_Large_string_engaged@?$_String_val@U?$_Simple_types@D@std@@@std@@QEBA_NXZ": # @"?_Large_string_engaged@?$_String_val@U?$_Simple_types@D@std@@@std@@QEBA_NXZ"
.seh_proc "?_Large_string_engaged@?$_String_val@U?$_Simple_types@D@std@@@std@@QEBA_NXZ"
# %bb.0:
	push	rax
	.seh_stackalloc 8
	.seh_endprologue
	mov	qword ptr [rsp], rcx
	mov	rcx, qword ptr [rsp]
	mov	eax, 16
	cmp	rax, qword ptr [rcx + 24]
	setbe	al
	and	al, 1
	movzx	eax, al
	pop	rcx
	ret
	.seh_endproc
                                        # -- End function
	.def	"?_Getal@?$basic_string@DU?$char_traits@D@std@@V?$allocator@D@2@@std@@AEAAAEAV?$allocator@D@2@XZ";
	.scl	2;
	.type	32;
	.endef
	.section	.text,"xr",discard,"?_Getal@?$basic_string@DU?$char_traits@D@std@@V?$allocator@D@2@@std@@AEAAAEAV?$allocator@D@2@XZ"
	.globl	"?_Getal@?$basic_string@DU?$char_traits@D@std@@V?$allocator@D@2@@std@@AEAAAEAV?$allocator@D@2@XZ" # -- Begin function ?_Getal@?$basic_string@DU?$char_traits@D@std@@V?$allocator@D@2@@std@@AEAAAEAV?$allocator@D@2@XZ
	.p2align	4, 0x90
"?_Getal@?$basic_string@DU?$char_traits@D@std@@V?$allocator@D@2@@std@@AEAAAEAV?$allocator@D@2@XZ": # @"?_Getal@?$basic_string@DU?$char_traits@D@std@@V?$allocator@D@2@@std@@AEAAAEAV?$allocator@D@2@XZ"
.seh_proc "?_Getal@?$basic_string@DU?$char_traits@D@std@@V?$allocator@D@2@@std@@AEAAAEAV?$allocator@D@2@XZ"
# %bb.0:
	sub	rsp, 40
	.seh_stackalloc 40
	.seh_endprologue
	mov	qword ptr [rsp + 32], rcx
	mov	rcx, qword ptr [rsp + 32]
	call	"?_Get_first@?$_Compressed_pair@V?$allocator@D@std@@V?$_String_val@U?$_Simple_types@D@std@@@2@$00@std@@QEAAAEAV?$allocator@D@2@XZ"
	nop
	add	rsp, 40
	ret
	.seh_endproc
                                        # -- End function
	.def	"??$_Destroy_in_place@PEAD@std@@YAXAEAPEAD@Z";
	.scl	2;
	.type	32;
	.endef
	.section	.text,"xr",discard,"??$_Destroy_in_place@PEAD@std@@YAXAEAPEAD@Z"
	.globl	"??$_Destroy_in_place@PEAD@std@@YAXAEAPEAD@Z" # -- Begin function ??$_Destroy_in_place@PEAD@std@@YAXAEAPEAD@Z
	.p2align	4, 0x90
"??$_Destroy_in_place@PEAD@std@@YAXAEAPEAD@Z": # @"??$_Destroy_in_place@PEAD@std@@YAXAEAPEAD@Z"
.seh_proc "??$_Destroy_in_place@PEAD@std@@YAXAEAPEAD@Z"
# %bb.0:
	push	rax
	.seh_stackalloc 8
	.seh_endprologue
	mov	qword ptr [rsp], rcx
	pop	rax
	ret
	.seh_endproc
                                        # -- End function
	.def	"?_Activate_SSO_buffer@?$_String_val@U?$_Simple_types@D@std@@@std@@QEAAXXZ";
	.scl	2;
	.type	32;
	.endef
	.section	.text,"xr",discard,"?_Activate_SSO_buffer@?$_String_val@U?$_Simple_types@D@std@@@std@@QEAAXXZ"
	.globl	"?_Activate_SSO_buffer@?$_String_val@U?$_Simple_types@D@std@@@std@@QEAAXXZ" # -- Begin function ?_Activate_SSO_buffer@?$_String_val@U?$_Simple_types@D@std@@@std@@QEAAXXZ
	.p2align	4, 0x90
"?_Activate_SSO_buffer@?$_String_val@U?$_Simple_types@D@std@@@std@@QEAAXXZ": # @"?_Activate_SSO_buffer@?$_String_val@U?$_Simple_types@D@std@@@std@@QEAAXXZ"
.seh_proc "?_Activate_SSO_buffer@?$_String_val@U?$_Simple_types@D@std@@@std@@QEAAXXZ"
# %bb.0:
	push	rax
	.seh_stackalloc 8
	.seh_endprologue
	mov	qword ptr [rsp], rcx
	pop	rax
	ret
	.seh_endproc
                                        # -- End function
	.def	"?deallocate@?$allocator@D@std@@QEAAXQEAD_K@Z";
	.scl	2;
	.type	32;
	.endef
	.section	.text,"xr",discard,"?deallocate@?$allocator@D@std@@QEAAXQEAD_K@Z"
	.globl	"?deallocate@?$allocator@D@std@@QEAAXQEAD_K@Z" # -- Begin function ?deallocate@?$allocator@D@std@@QEAAXQEAD_K@Z
	.p2align	4, 0x90
"?deallocate@?$allocator@D@std@@QEAAXQEAD_K@Z": # @"?deallocate@?$allocator@D@std@@QEAAXQEAD_K@Z"
.seh_proc "?deallocate@?$allocator@D@std@@QEAAXQEAD_K@Z"
# %bb.0:
	sub	rsp, 56
	.seh_stackalloc 56
	.seh_endprologue
	mov	qword ptr [rsp + 48], r8
	mov	qword ptr [rsp + 40], rdx
	mov	qword ptr [rsp + 32], rcx
	mov	rdx, qword ptr [rsp + 48]
	shl	rdx, 0
	mov	rcx, qword ptr [rsp + 40]
	call	"??$_Deallocate@$0BA@$0A@@std@@YAXPEAX_K@Z"
	nop
	add	rsp, 56
	ret
	.seh_endproc
                                        # -- End function
	.def	"?assign@?$_Narrow_char_traits@DH@std@@SAXAEADAEBD@Z";
	.scl	2;
	.type	32;
	.endef
	.section	.text,"xr",discard,"?assign@?$_Narrow_char_traits@DH@std@@SAXAEADAEBD@Z"
	.globl	"?assign@?$_Narrow_char_traits@DH@std@@SAXAEADAEBD@Z" # -- Begin function ?assign@?$_Narrow_char_traits@DH@std@@SAXAEADAEBD@Z
	.p2align	4, 0x90
"?assign@?$_Narrow_char_traits@DH@std@@SAXAEADAEBD@Z": # @"?assign@?$_Narrow_char_traits@DH@std@@SAXAEADAEBD@Z"
.seh_proc "?assign@?$_Narrow_char_traits@DH@std@@SAXAEADAEBD@Z"
# %bb.0:
	sub	rsp, 16
	.seh_stackalloc 16
	.seh_endprologue
	mov	qword ptr [rsp + 8], rdx
	mov	qword ptr [rsp], rcx
	mov	rax, qword ptr [rsp + 8]
	mov	cl, byte ptr [rax]
	mov	rax, qword ptr [rsp]
	mov	byte ptr [rax], cl
	add	rsp, 16
	ret
	.seh_endproc
                                        # -- End function
	.def	"?_Get_first@?$_Compressed_pair@V?$allocator@D@std@@V?$_String_val@U?$_Simple_types@D@std@@@2@$00@std@@QEAAAEAV?$allocator@D@2@XZ";
	.scl	2;
	.type	32;
	.endef
	.section	.text,"xr",discard,"?_Get_first@?$_Compressed_pair@V?$allocator@D@std@@V?$_String_val@U?$_Simple_types@D@std@@@2@$00@std@@QEAAAEAV?$allocator@D@2@XZ"
	.globl	"?_Get_first@?$_Compressed_pair@V?$allocator@D@std@@V?$_String_val@U?$_Simple_types@D@std@@@2@$00@std@@QEAAAEAV?$allocator@D@2@XZ" # -- Begin function ?_Get_first@?$_Compressed_pair@V?$allocator@D@std@@V?$_String_val@U?$_Simple_types@D@std@@@2@$00@std@@QEAAAEAV?$allocator@D@2@XZ
	.p2align	4, 0x90
"?_Get_first@?$_Compressed_pair@V?$allocator@D@std@@V?$_String_val@U?$_Simple_types@D@std@@@2@$00@std@@QEAAAEAV?$allocator@D@2@XZ": # @"?_Get_first@?$_Compressed_pair@V?$allocator@D@std@@V?$_String_val@U?$_Simple_types@D@std@@@2@$00@std@@QEAAAEAV?$allocator@D@2@XZ"
.seh_proc "?_Get_first@?$_Compressed_pair@V?$allocator@D@std@@V?$_String_val@U?$_Simple_types@D@std@@@2@$00@std@@QEAAAEAV?$allocator@D@2@XZ"
# %bb.0:
	push	rax
	.seh_stackalloc 8
	.seh_endprologue
	mov	qword ptr [rsp], rcx
	mov	rax, qword ptr [rsp]
	pop	rcx
	ret
	.seh_endproc
                                        # -- End function
	.def	"??$_Deallocate@$0BA@$0A@@std@@YAXPEAX_K@Z";
	.scl	2;
	.type	32;
	.endef
	.section	.text,"xr",discard,"??$_Deallocate@$0BA@$0A@@std@@YAXPEAX_K@Z"
	.globl	"??$_Deallocate@$0BA@$0A@@std@@YAXPEAX_K@Z" # -- Begin function ??$_Deallocate@$0BA@$0A@@std@@YAXPEAX_K@Z
	.p2align	4, 0x90
"??$_Deallocate@$0BA@$0A@@std@@YAXPEAX_K@Z": # @"??$_Deallocate@$0BA@$0A@@std@@YAXPEAX_K@Z"
.Lfunc_begin2:
.seh_proc "??$_Deallocate@$0BA@$0A@@std@@YAXPEAX_K@Z"
	.seh_handler __CxxFrameHandler3, @unwind, @except
# %bb.0:
	push	rbp
	.seh_pushreg rbp
	sub	rsp, 64
	.seh_stackalloc 64
	lea	rbp, [rsp + 64]
	.seh_setframe rbp, 64
	.seh_endprologue
	mov	qword ptr [rbp - 8], -2
	mov	qword ptr [rbp - 16], rdx
	mov	qword ptr [rbp - 24], rcx
	cmp	qword ptr [rbp - 16], 4096
	jb	.LBB24_3
# %bb.1:
.Ltmp6:
	lea	rcx, [rbp - 24]
	lea	rdx, [rbp - 16]
	call	"?_Adjust_manually_vector_aligned@std@@YAXAEAPEAXAEA_K@Z"
.Ltmp7:
	jmp	.LBB24_2
.LBB24_2:
	jmp	.LBB24_3
.LBB24_3:
	mov	rdx, qword ptr [rbp - 16]
	mov	rcx, qword ptr [rbp - 24]
	call	"??3@YAXPEAX_K@Z"
	nop
	add	rsp, 64
	pop	rbp
	ret
	.seh_handlerdata
	.long	("$cppxdata$??$_Deallocate@$0BA@$0A@@std@@YAXPEAX_K@Z")@IMGREL
	.section	.text,"xr",discard,"??$_Deallocate@$0BA@$0A@@std@@YAXPEAX_K@Z"
	.seh_endproc
	.def	"?dtor$4@?0???$_Deallocate@$0BA@$0A@@std@@YAXPEAX_K@Z@4HA";
	.scl	3;
	.type	32;
	.endef
	.p2align	4, 0x90
"?dtor$4@?0???$_Deallocate@$0BA@$0A@@std@@YAXPEAX_K@Z@4HA":
.seh_proc "?dtor$4@?0???$_Deallocate@$0BA@$0A@@std@@YAXPEAX_K@Z@4HA"
.LBB24_4:
	mov	qword ptr [rsp + 16], rdx
	push	rbp
	.seh_pushreg rbp
	sub	rsp, 32
	.seh_stackalloc 32
	lea	rbp, [rdx + 64]
	.seh_endprologue
	call	__std_terminate
	int3
.Lfunc_end2:
	.seh_handlerdata
	.section	.text,"xr",discard,"??$_Deallocate@$0BA@$0A@@std@@YAXPEAX_K@Z"
	.seh_endproc
	.section	.xdata,"dr",associative,"??$_Deallocate@$0BA@$0A@@std@@YAXPEAX_K@Z"
	.p2align	2
"$cppxdata$??$_Deallocate@$0BA@$0A@@std@@YAXPEAX_K@Z":
	.long	429065506                       # MagicNumber
	.long	1                               # MaxState
	.long	("$stateUnwindMap$??$_Deallocate@$0BA@$0A@@std@@YAXPEAX_K@Z")@IMGREL # UnwindMap
	.long	0                               # NumTryBlocks
	.long	0                               # TryBlockMap
	.long	3                               # IPMapEntries
	.long	("$ip2state$??$_Deallocate@$0BA@$0A@@std@@YAXPEAX_K@Z")@IMGREL # IPToStateXData
	.long	56                              # UnwindHelp
	.long	0                               # ESTypeList
	.long	1                               # EHFlags
"$stateUnwindMap$??$_Deallocate@$0BA@$0A@@std@@YAXPEAX_K@Z":
	.long	-1                              # ToState
	.long	"?dtor$4@?0???$_Deallocate@$0BA@$0A@@std@@YAXPEAX_K@Z@4HA"@IMGREL # Action
"$ip2state$??$_Deallocate@$0BA@$0A@@std@@YAXPEAX_K@Z":
	.long	.Lfunc_begin2@IMGREL            # IP
	.long	-1                              # ToState
	.long	.Ltmp6@IMGREL+1                 # IP
	.long	0                               # ToState
	.long	.Ltmp7@IMGREL+1                 # IP
	.long	-1                              # ToState
	.section	.text,"xr",discard,"??$_Deallocate@$0BA@$0A@@std@@YAXPEAX_K@Z"
                                        # -- End function
	.def	"?_Adjust_manually_vector_aligned@std@@YAXAEAPEAXAEA_K@Z";
	.scl	2;
	.type	32;
	.endef
	.section	.text,"xr",discard,"?_Adjust_manually_vector_aligned@std@@YAXAEAPEAXAEA_K@Z"
	.globl	"?_Adjust_manually_vector_aligned@std@@YAXAEAPEAXAEA_K@Z" # -- Begin function ?_Adjust_manually_vector_aligned@std@@YAXAEAPEAXAEA_K@Z
	.p2align	4, 0x90
"?_Adjust_manually_vector_aligned@std@@YAXAEAPEAXAEA_K@Z": # @"?_Adjust_manually_vector_aligned@std@@YAXAEAPEAXAEA_K@Z"
.seh_proc "?_Adjust_manually_vector_aligned@std@@YAXAEAPEAXAEA_K@Z"
# %bb.0:
	sub	rsp, 88
	.seh_stackalloc 88
	.seh_endprologue
	mov	qword ptr [rsp + 80], rdx
	mov	qword ptr [rsp + 72], rcx
	mov	rax, qword ptr [rsp + 80]
	mov	rcx, qword ptr [rax]
	add	rcx, 39
	mov	qword ptr [rax], rcx
	mov	rax, qword ptr [rsp + 72]
	mov	rax, qword ptr [rax]
	mov	qword ptr [rsp + 64], rax
	mov	rax, qword ptr [rsp + 64]
	mov	rax, qword ptr [rax - 8]
	mov	qword ptr [rsp + 56], rax
	mov	qword ptr [rsp + 48], 8
	mov	rax, qword ptr [rsp + 72]
	mov	rax, qword ptr [rax]
	sub	rax, qword ptr [rsp + 56]
	mov	qword ptr [rsp + 40], rax
# %bb.1:
	cmp	qword ptr [rsp + 40], 8
	jb	.LBB25_4
# %bb.2:
	cmp	qword ptr [rsp + 40], 39
	ja	.LBB25_4
# %bb.3:
	jmp	.LBB25_6
.LBB25_4:
	jmp	.LBB25_5
.LBB25_5:
	call	_invalid_parameter_noinfo_noreturn
.LBB25_6:
	jmp	.LBB25_7
.LBB25_7:
	mov	rcx, qword ptr [rsp + 56]
	mov	rax, qword ptr [rsp + 72]
	mov	qword ptr [rax], rcx
	add	rsp, 88
	ret
	.seh_endproc
                                        # -- End function
	.def	"??1?$_String_val@U?$_Simple_types@D@std@@@std@@QEAA@XZ";
	.scl	2;
	.type	32;
	.endef
	.section	.text,"xr",discard,"??1?$_String_val@U?$_Simple_types@D@std@@@std@@QEAA@XZ"
	.globl	"??1?$_String_val@U?$_Simple_types@D@std@@@std@@QEAA@XZ" # -- Begin function ??1?$_String_val@U?$_Simple_types@D@std@@@std@@QEAA@XZ
	.p2align	4, 0x90
"??1?$_String_val@U?$_Simple_types@D@std@@@std@@QEAA@XZ": # @"??1?$_String_val@U?$_Simple_types@D@std@@@std@@QEAA@XZ"
.seh_proc "??1?$_String_val@U?$_Simple_types@D@std@@@std@@QEAA@XZ"
# %bb.0:
	sub	rsp, 40
	.seh_stackalloc 40
	.seh_endprologue
	mov	qword ptr [rsp + 32], rcx
	mov	rcx, qword ptr [rsp + 32]
	call	"??1_Bxty@?$_String_val@U?$_Simple_types@D@std@@@std@@QEAA@XZ"
	nop
	add	rsp, 40
	ret
	.seh_endproc
                                        # -- End function
	.def	"??1_Bxty@?$_String_val@U?$_Simple_types@D@std@@@std@@QEAA@XZ";
	.scl	2;
	.type	32;
	.endef
	.section	.text,"xr",discard,"??1_Bxty@?$_String_val@U?$_Simple_types@D@std@@@std@@QEAA@XZ"
	.globl	"??1_Bxty@?$_String_val@U?$_Simple_types@D@std@@@std@@QEAA@XZ" # -- Begin function ??1_Bxty@?$_String_val@U?$_Simple_types@D@std@@@std@@QEAA@XZ
	.p2align	4, 0x90
"??1_Bxty@?$_String_val@U?$_Simple_types@D@std@@@std@@QEAA@XZ": # @"??1_Bxty@?$_String_val@U?$_Simple_types@D@std@@@std@@QEAA@XZ"
.seh_proc "??1_Bxty@?$_String_val@U?$_Simple_types@D@std@@@std@@QEAA@XZ"
# %bb.0:
	push	rax
	.seh_stackalloc 8
	.seh_endprologue
	mov	qword ptr [rsp], rcx
	pop	rax
	ret
	.seh_endproc
                                        # -- End function
	.def	"??$?0AEBV?$allocator@V?$array@H$02@std@@@std@@$$V@?$_Compressed_pair@V?$allocator@V?$array@H$02@std@@@std@@V?$_Vector_val@U?$_Simple_types@V?$array@H$02@std@@@std@@@2@$00@std@@QEAA@U_One_then_variadic_args_t@1@AEBV?$allocator@V?$array@H$02@std@@@1@@Z";
	.scl	2;
	.type	32;
	.endef
	.section	.text,"xr",discard,"??$?0AEBV?$allocator@V?$array@H$02@std@@@std@@$$V@?$_Compressed_pair@V?$allocator@V?$array@H$02@std@@@std@@V?$_Vector_val@U?$_Simple_types@V?$array@H$02@std@@@std@@@2@$00@std@@QEAA@U_One_then_variadic_args_t@1@AEBV?$allocator@V?$array@H$02@std@@@1@@Z"
	.globl	"??$?0AEBV?$allocator@V?$array@H$02@std@@@std@@$$V@?$_Compressed_pair@V?$allocator@V?$array@H$02@std@@@std@@V?$_Vector_val@U?$_Simple_types@V?$array@H$02@std@@@std@@@2@$00@std@@QEAA@U_One_then_variadic_args_t@1@AEBV?$allocator@V?$array@H$02@std@@@1@@Z" # -- Begin function ??$?0AEBV?$allocator@V?$array@H$02@std@@@std@@$$V@?$_Compressed_pair@V?$allocator@V?$array@H$02@std@@@std@@V?$_Vector_val@U?$_Simple_types@V?$array@H$02@std@@@std@@@2@$00@std@@QEAA@U_One_then_variadic_args_t@1@AEBV?$allocator@V?$array@H$02@std@@@1@@Z
	.p2align	4, 0x90
"??$?0AEBV?$allocator@V?$array@H$02@std@@@std@@$$V@?$_Compressed_pair@V?$allocator@V?$array@H$02@std@@@std@@V?$_Vector_val@U?$_Simple_types@V?$array@H$02@std@@@std@@@2@$00@std@@QEAA@U_One_then_variadic_args_t@1@AEBV?$allocator@V?$array@H$02@std@@@1@@Z": # @"??$?0AEBV?$allocator@V?$array@H$02@std@@@std@@$$V@?$_Compressed_pair@V?$allocator@V?$array@H$02@std@@@std@@V?$_Vector_val@U?$_Simple_types@V?$array@H$02@std@@@std@@@2@$00@std@@QEAA@U_One_then_variadic_args_t@1@AEBV?$allocator@V?$array@H$02@std@@@1@@Z"
.seh_proc "??$?0AEBV?$allocator@V?$array@H$02@std@@@std@@$$V@?$_Compressed_pair@V?$allocator@V?$array@H$02@std@@@std@@V?$_Vector_val@U?$_Simple_types@V?$array@H$02@std@@@std@@@2@$00@std@@QEAA@U_One_then_variadic_args_t@1@AEBV?$allocator@V?$array@H$02@std@@@1@@Z"
# %bb.0:
	sub	rsp, 72
	.seh_stackalloc 72
	.seh_endprologue
	mov	byte ptr [rsp + 64], dl
	mov	qword ptr [rsp + 56], r8
	mov	qword ptr [rsp + 48], rcx
	mov	rcx, qword ptr [rsp + 48]
	mov	qword ptr [rsp + 40], rcx       # 8-byte Spill
	call	"??0?$_Vector_val@U?$_Simple_types@V?$array@H$02@std@@@std@@@std@@QEAA@XZ"
                                        # kill: def $rcx killed $rax
	mov	rax, qword ptr [rsp + 40]       # 8-byte Reload
	add	rsp, 72
	ret
	.seh_endproc
                                        # -- End function
	.def	"??$_Construct_n@PEBV?$array@H$02@std@@PEBV12@@?$vector@V?$array@H$02@std@@V?$allocator@V?$array@H$02@std@@@2@@std@@AEAAX_K$$QEAPEBV?$array@H$02@1@1@Z";
	.scl	2;
	.type	32;
	.endef
	.section	.text,"xr",discard,"??$_Construct_n@PEBV?$array@H$02@std@@PEBV12@@?$vector@V?$array@H$02@std@@V?$allocator@V?$array@H$02@std@@@2@@std@@AEAAX_K$$QEAPEBV?$array@H$02@1@1@Z"
	.globl	"??$_Construct_n@PEBV?$array@H$02@std@@PEBV12@@?$vector@V?$array@H$02@std@@V?$allocator@V?$array@H$02@std@@@2@@std@@AEAAX_K$$QEAPEBV?$array@H$02@1@1@Z" # -- Begin function ??$_Construct_n@PEBV?$array@H$02@std@@PEBV12@@?$vector@V?$array@H$02@std@@V?$allocator@V?$array@H$02@std@@@2@@std@@AEAAX_K$$QEAPEBV?$array@H$02@1@1@Z
	.p2align	4, 0x90
"??$_Construct_n@PEBV?$array@H$02@std@@PEBV12@@?$vector@V?$array@H$02@std@@V?$allocator@V?$array@H$02@std@@@2@@std@@AEAAX_K$$QEAPEBV?$array@H$02@1@1@Z": # @"??$_Construct_n@PEBV?$array@H$02@std@@PEBV12@@?$vector@V?$array@H$02@std@@V?$allocator@V?$array@H$02@std@@@2@@std@@AEAAX_K$$QEAPEBV?$array@H$02@1@1@Z"
.Lfunc_begin3:
.seh_proc "??$_Construct_n@PEBV?$array@H$02@std@@PEBV12@@?$vector@V?$array@H$02@std@@V?$allocator@V?$array@H$02@std@@@2@@std@@AEAAX_K$$QEAPEBV?$array@H$02@1@1@Z"
	.seh_handler __CxxFrameHandler3, @unwind, @except
# %bb.0:
	push	rbp
	.seh_pushreg rbp
	sub	rsp, 128
	.seh_stackalloc 128
	lea	rbp, [rsp + 128]
	.seh_setframe rbp, 128
	.seh_endprologue
	mov	qword ptr [rbp - 8], -2
	mov	qword ptr [rbp - 16], r9
	mov	qword ptr [rbp - 24], r8
	mov	qword ptr [rbp - 32], rdx
	mov	qword ptr [rbp - 40], rcx
	mov	rcx, qword ptr [rbp - 40]
	mov	qword ptr [rbp - 88], rcx       # 8-byte Spill
	call	"?_Getal@?$vector@V?$array@H$02@std@@V?$allocator@V?$array@H$02@std@@@2@@std@@AEAAAEAV?$allocator@V?$array@H$02@std@@@2@XZ"
	mov	rcx, rax
	mov	rax, qword ptr [rbp - 88]       # 8-byte Reload
	mov	qword ptr [rbp - 48], rcx
	lea	rcx, [rip + "?_Fake_alloc@std@@3U_Fake_allocator@1@B"]
	mov	qword ptr [rbp - 56], rcx
	mov	qword ptr [rbp - 64], rax
	mov	r8, qword ptr [rbp - 64]
	lea	rcx, [rbp - 72]
	lea	rdx, [rip + "?_Fake_alloc@std@@3U_Fake_allocator@1@B"]
	call	"??0_Fake_proxy_ptr_impl@std@@QEAA@AEBU_Fake_allocator@1@AEBU_Container_base0@1@@Z"
	cmp	qword ptr [rbp - 32], 0
	je	.LBB29_4
# %bb.1:
	mov	rcx, qword ptr [rbp - 88]       # 8-byte Reload
	mov	rdx, qword ptr [rbp - 32]
	call	"?_Buy_nonzero@?$vector@V?$array@H$02@std@@V?$allocator@V?$array@H$02@std@@@2@@std@@AEAAX_K@Z"
	mov	rax, qword ptr [rbp - 88]       # 8-byte Reload
	mov	qword ptr [rbp - 80], rax
	mov	r9, qword ptr [rbp - 48]
	mov	rax, qword ptr [rbp - 64]
	mov	r8, qword ptr [rax]
	mov	rax, qword ptr [rbp - 16]
	mov	rdx, qword ptr [rax]
	mov	rax, qword ptr [rbp - 24]
	mov	rcx, qword ptr [rax]
.Ltmp8:
	call	"??$_Uninitialized_copy@PEBV?$array@H$02@std@@PEBV12@V?$allocator@V?$array@H$02@std@@@2@@std@@YAPEAV?$array@H$02@0@PEBV10@0PEAV10@AEAV?$allocator@V?$array@H$02@std@@@0@@Z"
.Ltmp9:
	mov	qword ptr [rbp - 96], rax       # 8-byte Spill
	jmp	.LBB29_2
.LBB29_2:
	mov	rcx, qword ptr [rbp - 96]       # 8-byte Reload
	mov	rax, qword ptr [rbp - 64]
	mov	qword ptr [rax + 8], rcx
	mov	qword ptr [rbp - 80], 0
	lea	rcx, [rbp - 80]
	call	"??1?$_Tidy_guard@V?$vector@V?$array@H$02@std@@V?$allocator@V?$array@H$02@std@@@2@@std@@@std@@QEAA@XZ"
	jmp	.LBB29_4
.LBB29_4:
	lea	rcx, [rbp - 72]
	call	"?_Release@_Fake_proxy_ptr_impl@std@@QEAAXXZ"
	nop
	add	rsp, 128
	pop	rbp
	ret
	.seh_handlerdata
	.long	("$cppxdata$??$_Construct_n@PEBV?$array@H$02@std@@PEBV12@@?$vector@V?$array@H$02@std@@V?$allocator@V?$array@H$02@std@@@2@@std@@AEAAX_K$$QEAPEBV?$array@H$02@1@1@Z")@IMGREL
	.section	.text,"xr",discard,"??$_Construct_n@PEBV?$array@H$02@std@@PEBV12@@?$vector@V?$array@H$02@std@@V?$allocator@V?$array@H$02@std@@@2@@std@@AEAAX_K$$QEAPEBV?$array@H$02@1@1@Z"
	.seh_endproc
	.def	"?dtor$3@?0???$_Construct_n@PEBV?$array@H$02@std@@PEBV12@@?$vector@V?$array@H$02@std@@V?$allocator@V?$array@H$02@std@@@2@@std@@AEAAX_K$$QEAPEBV?$array@H$02@1@1@Z@4HA";
	.scl	3;
	.type	32;
	.endef
	.p2align	4, 0x90
"?dtor$3@?0???$_Construct_n@PEBV?$array@H$02@std@@PEBV12@@?$vector@V?$array@H$02@std@@V?$allocator@V?$array@H$02@std@@@2@@std@@AEAAX_K$$QEAPEBV?$array@H$02@1@1@Z@4HA":
.seh_proc "?dtor$3@?0???$_Construct_n@PEBV?$array@H$02@std@@PEBV12@@?$vector@V?$array@H$02@std@@V?$allocator@V?$array@H$02@std@@@2@@std@@AEAAX_K$$QEAPEBV?$array@H$02@1@1@Z@4HA"
.LBB29_3:
	mov	qword ptr [rsp + 16], rdx
	push	rbp
	.seh_pushreg rbp
	sub	rsp, 32
	.seh_stackalloc 32
	lea	rbp, [rdx + 128]
	.seh_endprologue
	lea	rcx, [rbp - 80]
	call	"??1?$_Tidy_guard@V?$vector@V?$array@H$02@std@@V?$allocator@V?$array@H$02@std@@@2@@std@@@std@@QEAA@XZ"
	nop
	add	rsp, 32
	pop	rbp
	ret                                     # CLEANUPRET
.Lfunc_end3:
	.seh_handlerdata
	.section	.text,"xr",discard,"??$_Construct_n@PEBV?$array@H$02@std@@PEBV12@@?$vector@V?$array@H$02@std@@V?$allocator@V?$array@H$02@std@@@2@@std@@AEAAX_K$$QEAPEBV?$array@H$02@1@1@Z"
	.seh_endproc
	.section	.xdata,"dr",associative,"??$_Construct_n@PEBV?$array@H$02@std@@PEBV12@@?$vector@V?$array@H$02@std@@V?$allocator@V?$array@H$02@std@@@2@@std@@AEAAX_K$$QEAPEBV?$array@H$02@1@1@Z"
	.p2align	2
"$cppxdata$??$_Construct_n@PEBV?$array@H$02@std@@PEBV12@@?$vector@V?$array@H$02@std@@V?$allocator@V?$array@H$02@std@@@2@@std@@AEAAX_K$$QEAPEBV?$array@H$02@1@1@Z":
	.long	429065506                       # MagicNumber
	.long	1                               # MaxState
	.long	("$stateUnwindMap$??$_Construct_n@PEBV?$array@H$02@std@@PEBV12@@?$vector@V?$array@H$02@std@@V?$allocator@V?$array@H$02@std@@@2@@std@@AEAAX_K$$QEAPEBV?$array@H$02@1@1@Z")@IMGREL # UnwindMap
	.long	0                               # NumTryBlocks
	.long	0                               # TryBlockMap
	.long	3                               # IPMapEntries
	.long	("$ip2state$??$_Construct_n@PEBV?$array@H$02@std@@PEBV12@@?$vector@V?$array@H$02@std@@V?$allocator@V?$array@H$02@std@@@2@@std@@AEAAX_K$$QEAPEBV?$array@H$02@1@1@Z")@IMGREL # IPToStateXData
	.long	120                             # UnwindHelp
	.long	0                               # ESTypeList
	.long	1                               # EHFlags
"$stateUnwindMap$??$_Construct_n@PEBV?$array@H$02@std@@PEBV12@@?$vector@V?$array@H$02@std@@V?$allocator@V?$array@H$02@std@@@2@@std@@AEAAX_K$$QEAPEBV?$array@H$02@1@1@Z":
	.long	-1                              # ToState
	.long	"?dtor$3@?0???$_Construct_n@PEBV?$array@H$02@std@@PEBV12@@?$vector@V?$array@H$02@std@@V?$allocator@V?$array@H$02@std@@@2@@std@@AEAAX_K$$QEAPEBV?$array@H$02@1@1@Z@4HA"@IMGREL # Action
"$ip2state$??$_Construct_n@PEBV?$array@H$02@std@@PEBV12@@?$vector@V?$array@H$02@std@@V?$allocator@V?$array@H$02@std@@@2@@std@@AEAAX_K$$QEAPEBV?$array@H$02@1@1@Z":
	.long	.Lfunc_begin3@IMGREL            # IP
	.long	-1                              # ToState
	.long	.Ltmp8@IMGREL+1                 # IP
	.long	0                               # ToState
	.long	.Ltmp9@IMGREL+1                 # IP
	.long	-1                              # ToState
	.section	.text,"xr",discard,"??$_Construct_n@PEBV?$array@H$02@std@@PEBV12@@?$vector@V?$array@H$02@std@@V?$allocator@V?$array@H$02@std@@@2@@std@@AEAAX_K$$QEAPEBV?$array@H$02@1@1@Z"
                                        # -- End function
	.def	"?end@?$initializer_list@V?$array@H$02@std@@@std@@QEBAPEBV?$array@H$02@2@XZ";
	.scl	2;
	.type	32;
	.endef
	.section	.text,"xr",discard,"?end@?$initializer_list@V?$array@H$02@std@@@std@@QEBAPEBV?$array@H$02@2@XZ"
	.globl	"?end@?$initializer_list@V?$array@H$02@std@@@std@@QEBAPEBV?$array@H$02@2@XZ" # -- Begin function ?end@?$initializer_list@V?$array@H$02@std@@@std@@QEBAPEBV?$array@H$02@2@XZ
	.p2align	4, 0x90
"?end@?$initializer_list@V?$array@H$02@std@@@std@@QEBAPEBV?$array@H$02@2@XZ": # @"?end@?$initializer_list@V?$array@H$02@std@@@std@@QEBAPEBV?$array@H$02@2@XZ"
.seh_proc "?end@?$initializer_list@V?$array@H$02@std@@@std@@QEBAPEBV?$array@H$02@2@XZ"
# %bb.0:
	push	rax
	.seh_stackalloc 8
	.seh_endprologue
	mov	qword ptr [rsp], rcx
	mov	rax, qword ptr [rsp]
	mov	rax, qword ptr [rax + 8]
	pop	rcx
	ret
	.seh_endproc
                                        # -- End function
	.def	"?begin@?$initializer_list@V?$array@H$02@std@@@std@@QEBAPEBV?$array@H$02@2@XZ";
	.scl	2;
	.type	32;
	.endef
	.section	.text,"xr",discard,"?begin@?$initializer_list@V?$array@H$02@std@@@std@@QEBAPEBV?$array@H$02@2@XZ"
	.globl	"?begin@?$initializer_list@V?$array@H$02@std@@@std@@QEBAPEBV?$array@H$02@2@XZ" # -- Begin function ?begin@?$initializer_list@V?$array@H$02@std@@@std@@QEBAPEBV?$array@H$02@2@XZ
	.p2align	4, 0x90
"?begin@?$initializer_list@V?$array@H$02@std@@@std@@QEBAPEBV?$array@H$02@2@XZ": # @"?begin@?$initializer_list@V?$array@H$02@std@@@std@@QEBAPEBV?$array@H$02@2@XZ"
.seh_proc "?begin@?$initializer_list@V?$array@H$02@std@@@std@@QEBAPEBV?$array@H$02@2@XZ"
# %bb.0:
	push	rax
	.seh_stackalloc 8
	.seh_endprologue
	mov	qword ptr [rsp], rcx
	mov	rax, qword ptr [rsp]
	mov	rax, qword ptr [rax]
	pop	rcx
	ret
	.seh_endproc
                                        # -- End function
	.def	"??$_Convert_size@_K_K@std@@YA_K_K@Z";
	.scl	2;
	.type	32;
	.endef
	.section	.text,"xr",discard,"??$_Convert_size@_K_K@std@@YA_K_K@Z"
	.globl	"??$_Convert_size@_K_K@std@@YA_K_K@Z" # -- Begin function ??$_Convert_size@_K_K@std@@YA_K_K@Z
	.p2align	4, 0x90
"??$_Convert_size@_K_K@std@@YA_K_K@Z":  # @"??$_Convert_size@_K_K@std@@YA_K_K@Z"
.seh_proc "??$_Convert_size@_K_K@std@@YA_K_K@Z"
# %bb.0:
	push	rax
	.seh_stackalloc 8
	.seh_endprologue
	mov	qword ptr [rsp], rcx
	mov	rax, qword ptr [rsp]
	pop	rcx
	ret
	.seh_endproc
                                        # -- End function
	.def	"?size@?$initializer_list@V?$array@H$02@std@@@std@@QEBA_KXZ";
	.scl	2;
	.type	32;
	.endef
	.section	.text,"xr",discard,"?size@?$initializer_list@V?$array@H$02@std@@@std@@QEBA_KXZ"
	.globl	"?size@?$initializer_list@V?$array@H$02@std@@@std@@QEBA_KXZ" # -- Begin function ?size@?$initializer_list@V?$array@H$02@std@@@std@@QEBA_KXZ
	.p2align	4, 0x90
"?size@?$initializer_list@V?$array@H$02@std@@@std@@QEBA_KXZ": # @"?size@?$initializer_list@V?$array@H$02@std@@@std@@QEBA_KXZ"
.seh_proc "?size@?$initializer_list@V?$array@H$02@std@@@std@@QEBA_KXZ"
# %bb.0:
	push	rax
	.seh_stackalloc 8
	.seh_endprologue
	mov	qword ptr [rsp], rcx
	mov	rcx, qword ptr [rsp]
	mov	rax, qword ptr [rcx + 8]
	mov	rcx, qword ptr [rcx]
	sub	rax, rcx
	mov	ecx, 12
	cqo
	idiv	rcx
	pop	rcx
	ret
	.seh_endproc
                                        # -- End function
	.def	"??0?$_Vector_val@U?$_Simple_types@V?$array@H$02@std@@@std@@@std@@QEAA@XZ";
	.scl	2;
	.type	32;
	.endef
	.section	.text,"xr",discard,"??0?$_Vector_val@U?$_Simple_types@V?$array@H$02@std@@@std@@@std@@QEAA@XZ"
	.globl	"??0?$_Vector_val@U?$_Simple_types@V?$array@H$02@std@@@std@@@std@@QEAA@XZ" # -- Begin function ??0?$_Vector_val@U?$_Simple_types@V?$array@H$02@std@@@std@@@std@@QEAA@XZ
	.p2align	4, 0x90
"??0?$_Vector_val@U?$_Simple_types@V?$array@H$02@std@@@std@@@std@@QEAA@XZ": # @"??0?$_Vector_val@U?$_Simple_types@V?$array@H$02@std@@@std@@@std@@QEAA@XZ"
.seh_proc "??0?$_Vector_val@U?$_Simple_types@V?$array@H$02@std@@@std@@@std@@QEAA@XZ"
# %bb.0:
	push	rax
	.seh_stackalloc 8
	.seh_endprologue
	mov	qword ptr [rsp], rcx
	mov	rax, qword ptr [rsp]
	mov	qword ptr [rax], 0
	mov	qword ptr [rax + 8], 0
	mov	qword ptr [rax + 16], 0
	pop	rcx
	ret
	.seh_endproc
                                        # -- End function
	.def	"?_Getal@?$vector@V?$array@H$02@std@@V?$allocator@V?$array@H$02@std@@@2@@std@@AEAAAEAV?$allocator@V?$array@H$02@std@@@2@XZ";
	.scl	2;
	.type	32;
	.endef
	.section	.text,"xr",discard,"?_Getal@?$vector@V?$array@H$02@std@@V?$allocator@V?$array@H$02@std@@@2@@std@@AEAAAEAV?$allocator@V?$array@H$02@std@@@2@XZ"
	.globl	"?_Getal@?$vector@V?$array@H$02@std@@V?$allocator@V?$array@H$02@std@@@2@@std@@AEAAAEAV?$allocator@V?$array@H$02@std@@@2@XZ" # -- Begin function ?_Getal@?$vector@V?$array@H$02@std@@V?$allocator@V?$array@H$02@std@@@2@@std@@AEAAAEAV?$allocator@V?$array@H$02@std@@@2@XZ
	.p2align	4, 0x90
"?_Getal@?$vector@V?$array@H$02@std@@V?$allocator@V?$array@H$02@std@@@2@@std@@AEAAAEAV?$allocator@V?$array@H$02@std@@@2@XZ": # @"?_Getal@?$vector@V?$array@H$02@std@@V?$allocator@V?$array@H$02@std@@@2@@std@@AEAAAEAV?$allocator@V?$array@H$02@std@@@2@XZ"
.seh_proc "?_Getal@?$vector@V?$array@H$02@std@@V?$allocator@V?$array@H$02@std@@@2@@std@@AEAAAEAV?$allocator@V?$array@H$02@std@@@2@XZ"
# %bb.0:
	sub	rsp, 40
	.seh_stackalloc 40
	.seh_endprologue
	mov	qword ptr [rsp + 32], rcx
	mov	rcx, qword ptr [rsp + 32]
	call	"?_Get_first@?$_Compressed_pair@V?$allocator@V?$array@H$02@std@@@std@@V?$_Vector_val@U?$_Simple_types@V?$array@H$02@std@@@std@@@2@$00@std@@QEAAAEAV?$allocator@V?$array@H$02@std@@@2@XZ"
	nop
	add	rsp, 40
	ret
	.seh_endproc
                                        # -- End function
	.def	"??0_Fake_proxy_ptr_impl@std@@QEAA@AEBU_Fake_allocator@1@AEBU_Container_base0@1@@Z";
	.scl	2;
	.type	32;
	.endef
	.section	.text,"xr",discard,"??0_Fake_proxy_ptr_impl@std@@QEAA@AEBU_Fake_allocator@1@AEBU_Container_base0@1@@Z"
	.globl	"??0_Fake_proxy_ptr_impl@std@@QEAA@AEBU_Fake_allocator@1@AEBU_Container_base0@1@@Z" # -- Begin function ??0_Fake_proxy_ptr_impl@std@@QEAA@AEBU_Fake_allocator@1@AEBU_Container_base0@1@@Z
	.p2align	4, 0x90
"??0_Fake_proxy_ptr_impl@std@@QEAA@AEBU_Fake_allocator@1@AEBU_Container_base0@1@@Z": # @"??0_Fake_proxy_ptr_impl@std@@QEAA@AEBU_Fake_allocator@1@AEBU_Container_base0@1@@Z"
.seh_proc "??0_Fake_proxy_ptr_impl@std@@QEAA@AEBU_Fake_allocator@1@AEBU_Container_base0@1@@Z"
# %bb.0:
	sub	rsp, 24
	.seh_stackalloc 24
	.seh_endprologue
	mov	qword ptr [rsp + 16], r8
	mov	qword ptr [rsp + 8], rdx
	mov	qword ptr [rsp], rcx
	mov	rax, qword ptr [rsp]
	add	rsp, 24
	ret
	.seh_endproc
                                        # -- End function
	.def	"?_Buy_nonzero@?$vector@V?$array@H$02@std@@V?$allocator@V?$array@H$02@std@@@2@@std@@AEAAX_K@Z";
	.scl	2;
	.type	32;
	.endef
	.section	.text,"xr",discard,"?_Buy_nonzero@?$vector@V?$array@H$02@std@@V?$allocator@V?$array@H$02@std@@@2@@std@@AEAAX_K@Z"
	.globl	"?_Buy_nonzero@?$vector@V?$array@H$02@std@@V?$allocator@V?$array@H$02@std@@@2@@std@@AEAAX_K@Z" # -- Begin function ?_Buy_nonzero@?$vector@V?$array@H$02@std@@V?$allocator@V?$array@H$02@std@@@2@@std@@AEAAX_K@Z
	.p2align	4, 0x90
"?_Buy_nonzero@?$vector@V?$array@H$02@std@@V?$allocator@V?$array@H$02@std@@@2@@std@@AEAAX_K@Z": # @"?_Buy_nonzero@?$vector@V?$array@H$02@std@@V?$allocator@V?$array@H$02@std@@@2@@std@@AEAAX_K@Z"
.seh_proc "?_Buy_nonzero@?$vector@V?$array@H$02@std@@V?$allocator@V?$array@H$02@std@@@2@@std@@AEAAX_K@Z"
# %bb.0:
	sub	rsp, 72
	.seh_stackalloc 72
	.seh_endprologue
	mov	qword ptr [rsp + 64], rdx
	mov	qword ptr [rsp + 56], rcx
	mov	rcx, qword ptr [rsp + 56]
	mov	qword ptr [rsp + 40], rcx       # 8-byte Spill
	mov	rax, qword ptr [rsp + 64]
	mov	qword ptr [rsp + 48], rax       # 8-byte Spill
	call	"?max_size@?$vector@V?$array@H$02@std@@V?$allocator@V?$array@H$02@std@@@2@@std@@QEBA_KXZ"
	mov	rcx, rax
	mov	rax, qword ptr [rsp + 48]       # 8-byte Reload
	cmp	rax, rcx
	jbe	.LBB37_2
# %bb.1:
	call	"?_Xlength@?$vector@V?$array@H$02@std@@V?$allocator@V?$array@H$02@std@@@2@@std@@CAXXZ"
.LBB37_2:
	mov	rcx, qword ptr [rsp + 40]       # 8-byte Reload
	mov	rdx, qword ptr [rsp + 64]
	call	"?_Buy_raw@?$vector@V?$array@H$02@std@@V?$allocator@V?$array@H$02@std@@@2@@std@@AEAAX_K@Z"
	nop
	add	rsp, 72
	ret
	.seh_endproc
                                        # -- End function
	.def	"??$_Uninitialized_copy@PEBV?$array@H$02@std@@PEBV12@V?$allocator@V?$array@H$02@std@@@2@@std@@YAPEAV?$array@H$02@0@PEBV10@0PEAV10@AEAV?$allocator@V?$array@H$02@std@@@0@@Z";
	.scl	2;
	.type	32;
	.endef
	.section	.text,"xr",discard,"??$_Uninitialized_copy@PEBV?$array@H$02@std@@PEBV12@V?$allocator@V?$array@H$02@std@@@2@@std@@YAPEAV?$array@H$02@0@PEBV10@0PEAV10@AEAV?$allocator@V?$array@H$02@std@@@0@@Z"
	.globl	"??$_Uninitialized_copy@PEBV?$array@H$02@std@@PEBV12@V?$allocator@V?$array@H$02@std@@@2@@std@@YAPEAV?$array@H$02@0@PEBV10@0PEAV10@AEAV?$allocator@V?$array@H$02@std@@@0@@Z" # -- Begin function ??$_Uninitialized_copy@PEBV?$array@H$02@std@@PEBV12@V?$allocator@V?$array@H$02@std@@@2@@std@@YAPEAV?$array@H$02@0@PEBV10@0PEAV10@AEAV?$allocator@V?$array@H$02@std@@@0@@Z
	.p2align	4, 0x90
"??$_Uninitialized_copy@PEBV?$array@H$02@std@@PEBV12@V?$allocator@V?$array@H$02@std@@@2@@std@@YAPEAV?$array@H$02@0@PEBV10@0PEAV10@AEAV?$allocator@V?$array@H$02@std@@@0@@Z": # @"??$_Uninitialized_copy@PEBV?$array@H$02@std@@PEBV12@V?$allocator@V?$array@H$02@std@@@2@@std@@YAPEAV?$array@H$02@0@PEBV10@0PEAV10@AEAV?$allocator@V?$array@H$02@std@@@0@@Z"
.seh_proc "??$_Uninitialized_copy@PEBV?$array@H$02@std@@PEBV12@V?$allocator@V?$array@H$02@std@@@2@@std@@YAPEAV?$array@H$02@0@PEBV10@0PEAV10@AEAV?$allocator@V?$array@H$02@std@@@0@@Z"
# %bb.0:
	sub	rsp, 136
	.seh_stackalloc 136
	.seh_endprologue
	mov	qword ptr [rsp + 128], r9
	mov	qword ptr [rsp + 120], r8
	mov	qword ptr [rsp + 112], rdx
	mov	qword ptr [rsp + 104], rcx
	lea	rcx, [rsp + 104]
	call	"??$_Unwrap_iter@PEBV?$array@H$02@std@@PEBV12@@ranges@std@@YA?A?<decltype-auto>@@$$QEAPEBV?$array@H$02@1@@Z"
	mov	qword ptr [rsp + 96], rax
	lea	rcx, [rsp + 112]
	call	"??$_Unwrap_sent@PEBV?$array@H$02@std@@PEBV12@@ranges@std@@YA?A?<decltype-auto>@@$$QEAPEBV?$array@H$02@1@@Z"
	mov	qword ptr [rsp + 88], rax
	mov	byte ptr [rsp + 87], 1
	mov	rcx, qword ptr [rsp + 120]
	call	"??$_Unfancy@V?$array@H$02@std@@@std@@YAPEAV?$array@H$02@0@PEAV10@@Z"
	mov	qword ptr [rsp + 48], rax       # 8-byte Spill
	lea	rcx, [rsp + 88]
	call	"??$_To_address@PEBV?$array@H$02@std@@@std@@YA?A?<auto>@@AEBQEBV?$array@H$02@0@@Z"
	mov	qword ptr [rsp + 40], rax       # 8-byte Spill
	lea	rcx, [rsp + 96]
	call	"??$_To_address@PEBV?$array@H$02@std@@@std@@YA?A?<auto>@@AEBQEBV?$array@H$02@0@@Z"
	mov	rdx, qword ptr [rsp + 40]       # 8-byte Reload
	mov	r8, qword ptr [rsp + 48]        # 8-byte Reload
	mov	rcx, rax
	call	"??$_Copy_memmove@PEBV?$array@H$02@std@@PEAV12@@std@@YAPEAV?$array@H$02@0@PEBV10@0PEAV10@@Z"
	mov	rax, qword ptr [rsp + 88]
	mov	rcx, qword ptr [rsp + 96]
	sub	rax, rcx
	mov	ecx, 12
	cqo
	idiv	rcx
	imul	rax, rax, 12
	add	rax, qword ptr [rsp + 120]
	mov	qword ptr [rsp + 120], rax
	mov	rax, qword ptr [rsp + 120]
	add	rsp, 136
	ret
	.seh_endproc
                                        # -- End function
	.def	"??1?$_Tidy_guard@V?$vector@V?$array@H$02@std@@V?$allocator@V?$array@H$02@std@@@2@@std@@@std@@QEAA@XZ";
	.scl	2;
	.type	32;
	.endef
	.section	.text,"xr",discard,"??1?$_Tidy_guard@V?$vector@V?$array@H$02@std@@V?$allocator@V?$array@H$02@std@@@2@@std@@@std@@QEAA@XZ"
	.globl	"??1?$_Tidy_guard@V?$vector@V?$array@H$02@std@@V?$allocator@V?$array@H$02@std@@@2@@std@@@std@@QEAA@XZ" # -- Begin function ??1?$_Tidy_guard@V?$vector@V?$array@H$02@std@@V?$allocator@V?$array@H$02@std@@@2@@std@@@std@@QEAA@XZ
	.p2align	4, 0x90
"??1?$_Tidy_guard@V?$vector@V?$array@H$02@std@@V?$allocator@V?$array@H$02@std@@@2@@std@@@std@@QEAA@XZ": # @"??1?$_Tidy_guard@V?$vector@V?$array@H$02@std@@V?$allocator@V?$array@H$02@std@@@2@@std@@@std@@QEAA@XZ"
.seh_proc "??1?$_Tidy_guard@V?$vector@V?$array@H$02@std@@V?$allocator@V?$array@H$02@std@@@2@@std@@@std@@QEAA@XZ"
# %bb.0:
	sub	rsp, 56
	.seh_stackalloc 56
	.seh_endprologue
	mov	qword ptr [rsp + 48], rcx
	mov	rax, qword ptr [rsp + 48]
	mov	qword ptr [rsp + 40], rax       # 8-byte Spill
	cmp	qword ptr [rax], 0
	je	.LBB39_2
# %bb.1:
	mov	rax, qword ptr [rsp + 40]       # 8-byte Reload
	mov	rcx, qword ptr [rax]
	call	"?_Tidy@?$vector@V?$array@H$02@std@@V?$allocator@V?$array@H$02@std@@@2@@std@@AEAAXXZ"
.LBB39_2:
	nop
	add	rsp, 56
	ret
	.seh_endproc
                                        # -- End function
	.def	"?_Release@_Fake_proxy_ptr_impl@std@@QEAAXXZ";
	.scl	2;
	.type	32;
	.endef
	.section	.text,"xr",discard,"?_Release@_Fake_proxy_ptr_impl@std@@QEAAXXZ"
	.globl	"?_Release@_Fake_proxy_ptr_impl@std@@QEAAXXZ" # -- Begin function ?_Release@_Fake_proxy_ptr_impl@std@@QEAAXXZ
	.p2align	4, 0x90
"?_Release@_Fake_proxy_ptr_impl@std@@QEAAXXZ": # @"?_Release@_Fake_proxy_ptr_impl@std@@QEAAXXZ"
.seh_proc "?_Release@_Fake_proxy_ptr_impl@std@@QEAAXXZ"
# %bb.0:
	push	rax
	.seh_stackalloc 8
	.seh_endprologue
	mov	qword ptr [rsp], rcx
	pop	rax
	ret
	.seh_endproc
                                        # -- End function
	.def	"?_Get_first@?$_Compressed_pair@V?$allocator@V?$array@H$02@std@@@std@@V?$_Vector_val@U?$_Simple_types@V?$array@H$02@std@@@std@@@2@$00@std@@QEAAAEAV?$allocator@V?$array@H$02@std@@@2@XZ";
	.scl	2;
	.type	32;
	.endef
	.section	.text,"xr",discard,"?_Get_first@?$_Compressed_pair@V?$allocator@V?$array@H$02@std@@@std@@V?$_Vector_val@U?$_Simple_types@V?$array@H$02@std@@@std@@@2@$00@std@@QEAAAEAV?$allocator@V?$array@H$02@std@@@2@XZ"
	.globl	"?_Get_first@?$_Compressed_pair@V?$allocator@V?$array@H$02@std@@@std@@V?$_Vector_val@U?$_Simple_types@V?$array@H$02@std@@@std@@@2@$00@std@@QEAAAEAV?$allocator@V?$array@H$02@std@@@2@XZ" # -- Begin function ?_Get_first@?$_Compressed_pair@V?$allocator@V?$array@H$02@std@@@std@@V?$_Vector_val@U?$_Simple_types@V?$array@H$02@std@@@std@@@2@$00@std@@QEAAAEAV?$allocator@V?$array@H$02@std@@@2@XZ
	.p2align	4, 0x90
"?_Get_first@?$_Compressed_pair@V?$allocator@V?$array@H$02@std@@@std@@V?$_Vector_val@U?$_Simple_types@V?$array@H$02@std@@@std@@@2@$00@std@@QEAAAEAV?$allocator@V?$array@H$02@std@@@2@XZ": # @"?_Get_first@?$_Compressed_pair@V?$allocator@V?$array@H$02@std@@@std@@V?$_Vector_val@U?$_Simple_types@V?$array@H$02@std@@@std@@@2@$00@std@@QEAAAEAV?$allocator@V?$array@H$02@std@@@2@XZ"
.seh_proc "?_Get_first@?$_Compressed_pair@V?$allocator@V?$array@H$02@std@@@std@@V?$_Vector_val@U?$_Simple_types@V?$array@H$02@std@@@std@@@2@$00@std@@QEAAAEAV?$allocator@V?$array@H$02@std@@@2@XZ"
# %bb.0:
	push	rax
	.seh_stackalloc 8
	.seh_endprologue
	mov	qword ptr [rsp], rcx
	mov	rax, qword ptr [rsp]
	pop	rcx
	ret
	.seh_endproc
                                        # -- End function
	.def	"?max_size@?$vector@V?$array@H$02@std@@V?$allocator@V?$array@H$02@std@@@2@@std@@QEBA_KXZ";
	.scl	2;
	.type	32;
	.endef
	.section	.text,"xr",discard,"?max_size@?$vector@V?$array@H$02@std@@V?$allocator@V?$array@H$02@std@@@2@@std@@QEBA_KXZ"
	.globl	"?max_size@?$vector@V?$array@H$02@std@@V?$allocator@V?$array@H$02@std@@@2@@std@@QEBA_KXZ" # -- Begin function ?max_size@?$vector@V?$array@H$02@std@@V?$allocator@V?$array@H$02@std@@@2@@std@@QEBA_KXZ
	.p2align	4, 0x90
"?max_size@?$vector@V?$array@H$02@std@@V?$allocator@V?$array@H$02@std@@@2@@std@@QEBA_KXZ": # @"?max_size@?$vector@V?$array@H$02@std@@V?$allocator@V?$array@H$02@std@@@2@@std@@QEBA_KXZ"
.seh_proc "?max_size@?$vector@V?$array@H$02@std@@V?$allocator@V?$array@H$02@std@@@2@@std@@QEBA_KXZ"
# %bb.0:
	sub	rsp, 56
	.seh_stackalloc 56
	.seh_endprologue
	mov	qword ptr [rsp + 48], rcx
	mov	rcx, qword ptr [rsp + 48]
	call	"?_Getal@?$vector@V?$array@H$02@std@@V?$allocator@V?$array@H$02@std@@@2@@std@@AEBAAEBV?$allocator@V?$array@H$02@std@@@2@XZ"
	mov	rcx, rax
	call	"?max_size@?$_Default_allocator_traits@V?$allocator@V?$array@H$02@std@@@std@@@std@@SA_KAEBV?$allocator@V?$array@H$02@std@@@2@@Z"
	mov	qword ptr [rsp + 40], rax
	call	"?max@?$numeric_limits@_J@std@@SA_JXZ"
	mov	qword ptr [rsp + 32], rax
	lea	rcx, [rsp + 32]
	lea	rdx, [rsp + 40]
	call	"??$min@_K@std@@YAAEB_KAEB_K0@Z"
	mov	rax, qword ptr [rax]
	add	rsp, 56
	ret
	.seh_endproc
                                        # -- End function
	.def	"?_Xlength@?$vector@V?$array@H$02@std@@V?$allocator@V?$array@H$02@std@@@2@@std@@CAXXZ";
	.scl	2;
	.type	32;
	.endef
	.section	.text,"xr",discard,"?_Xlength@?$vector@V?$array@H$02@std@@V?$allocator@V?$array@H$02@std@@@2@@std@@CAXXZ"
	.globl	"?_Xlength@?$vector@V?$array@H$02@std@@V?$allocator@V?$array@H$02@std@@@2@@std@@CAXXZ" # -- Begin function ?_Xlength@?$vector@V?$array@H$02@std@@V?$allocator@V?$array@H$02@std@@@2@@std@@CAXXZ
	.p2align	4, 0x90
"?_Xlength@?$vector@V?$array@H$02@std@@V?$allocator@V?$array@H$02@std@@@2@@std@@CAXXZ": # @"?_Xlength@?$vector@V?$array@H$02@std@@V?$allocator@V?$array@H$02@std@@@2@@std@@CAXXZ"
.seh_proc "?_Xlength@?$vector@V?$array@H$02@std@@V?$allocator@V?$array@H$02@std@@@2@@std@@CAXXZ"
# %bb.0:
	sub	rsp, 40
	.seh_stackalloc 40
	.seh_endprologue
	lea	rcx, [rip + "??_C@_0BA@FOIKENOD@vector?5too?5long?$AA@"]
	call	"?_Xlength_error@std@@YAXPEBD@Z"
	int3
	.seh_endproc
                                        # -- End function
	.def	"?_Buy_raw@?$vector@V?$array@H$02@std@@V?$allocator@V?$array@H$02@std@@@2@@std@@AEAAX_K@Z";
	.scl	2;
	.type	32;
	.endef
	.section	.text,"xr",discard,"?_Buy_raw@?$vector@V?$array@H$02@std@@V?$allocator@V?$array@H$02@std@@@2@@std@@AEAAX_K@Z"
	.globl	"?_Buy_raw@?$vector@V?$array@H$02@std@@V?$allocator@V?$array@H$02@std@@@2@@std@@AEAAX_K@Z" # -- Begin function ?_Buy_raw@?$vector@V?$array@H$02@std@@V?$allocator@V?$array@H$02@std@@@2@@std@@AEAAX_K@Z
	.p2align	4, 0x90
"?_Buy_raw@?$vector@V?$array@H$02@std@@V?$allocator@V?$array@H$02@std@@@2@@std@@AEAAX_K@Z": # @"?_Buy_raw@?$vector@V?$array@H$02@std@@V?$allocator@V?$array@H$02@std@@@2@@std@@AEAAX_K@Z"
.seh_proc "?_Buy_raw@?$vector@V?$array@H$02@std@@V?$allocator@V?$array@H$02@std@@@2@@std@@AEAAX_K@Z"
# %bb.0:
	sub	rsp, 88
	.seh_stackalloc 88
	.seh_endprologue
	mov	qword ptr [rsp + 80], rdx
	mov	qword ptr [rsp + 72], rcx
	mov	rcx, qword ptr [rsp + 72]
	mov	qword ptr [rsp + 64], rcx
	mov	rax, qword ptr [rsp + 64]
	mov	qword ptr [rsp + 56], rax
	mov	rax, qword ptr [rsp + 64]
	add	rax, 8
	mov	qword ptr [rsp + 48], rax
	mov	rax, qword ptr [rsp + 64]
	add	rax, 16
	mov	qword ptr [rsp + 40], rax
	call	"?_Getal@?$vector@V?$array@H$02@std@@V?$allocator@V?$array@H$02@std@@@2@@std@@AEAAAEAV?$allocator@V?$array@H$02@std@@@2@XZ"
	mov	rcx, rax
	mov	rdx, qword ptr [rsp + 80]
	call	"?allocate@?$allocator@V?$array@H$02@std@@@std@@QEAAPEAV?$array@H$02@2@_K@Z"
	mov	qword ptr [rsp + 32], rax
	mov	rcx, qword ptr [rsp + 32]
	mov	rax, qword ptr [rsp + 56]
	mov	qword ptr [rax], rcx
	mov	rcx, qword ptr [rsp + 32]
	mov	rax, qword ptr [rsp + 48]
	mov	qword ptr [rax], rcx
	mov	rcx, qword ptr [rsp + 32]
	imul	rax, qword ptr [rsp + 80], 12
	add	rcx, rax
	mov	rax, qword ptr [rsp + 40]
	mov	qword ptr [rax], rcx
	add	rsp, 88
	ret
	.seh_endproc
                                        # -- End function
	.def	"??$min@_K@std@@YAAEB_KAEB_K0@Z";
	.scl	2;
	.type	32;
	.endef
	.section	.text,"xr",discard,"??$min@_K@std@@YAAEB_KAEB_K0@Z"
	.globl	"??$min@_K@std@@YAAEB_KAEB_K0@Z" # -- Begin function ??$min@_K@std@@YAAEB_KAEB_K0@Z
	.p2align	4, 0x90
"??$min@_K@std@@YAAEB_KAEB_K0@Z":       # @"??$min@_K@std@@YAAEB_KAEB_K0@Z"
.seh_proc "??$min@_K@std@@YAAEB_KAEB_K0@Z"
# %bb.0:
	sub	rsp, 24
	.seh_stackalloc 24
	.seh_endprologue
	mov	qword ptr [rsp + 16], rdx
	mov	qword ptr [rsp + 8], rcx
	mov	rax, qword ptr [rsp + 16]
	mov	rax, qword ptr [rax]
	mov	rcx, qword ptr [rsp + 8]
	cmp	rax, qword ptr [rcx]
	jae	.LBB45_2
# %bb.1:
	mov	rax, qword ptr [rsp + 16]
	mov	qword ptr [rsp], rax            # 8-byte Spill
	jmp	.LBB45_3
.LBB45_2:
	mov	rax, qword ptr [rsp + 8]
	mov	qword ptr [rsp], rax            # 8-byte Spill
.LBB45_3:
	mov	rax, qword ptr [rsp]            # 8-byte Reload
	add	rsp, 24
	ret
	.seh_endproc
                                        # -- End function
	.def	"?max_size@?$_Default_allocator_traits@V?$allocator@V?$array@H$02@std@@@std@@@std@@SA_KAEBV?$allocator@V?$array@H$02@std@@@2@@Z";
	.scl	2;
	.type	32;
	.endef
	.section	.text,"xr",discard,"?max_size@?$_Default_allocator_traits@V?$allocator@V?$array@H$02@std@@@std@@@std@@SA_KAEBV?$allocator@V?$array@H$02@std@@@2@@Z"
	.globl	"?max_size@?$_Default_allocator_traits@V?$allocator@V?$array@H$02@std@@@std@@@std@@SA_KAEBV?$allocator@V?$array@H$02@std@@@2@@Z" # -- Begin function ?max_size@?$_Default_allocator_traits@V?$allocator@V?$array@H$02@std@@@std@@@std@@SA_KAEBV?$allocator@V?$array@H$02@std@@@2@@Z
	.p2align	4, 0x90
"?max_size@?$_Default_allocator_traits@V?$allocator@V?$array@H$02@std@@@std@@@std@@SA_KAEBV?$allocator@V?$array@H$02@std@@@2@@Z": # @"?max_size@?$_Default_allocator_traits@V?$allocator@V?$array@H$02@std@@@std@@@std@@SA_KAEBV?$allocator@V?$array@H$02@std@@@2@@Z"
.seh_proc "?max_size@?$_Default_allocator_traits@V?$allocator@V?$array@H$02@std@@@std@@@std@@SA_KAEBV?$allocator@V?$array@H$02@std@@@2@@Z"
# %bb.0:
	push	rax
	.seh_stackalloc 8
	.seh_endprologue
	mov	qword ptr [rsp], rcx
	movabs	rax, 1537228672809129301
	pop	rcx
	ret
	.seh_endproc
                                        # -- End function
	.def	"?_Getal@?$vector@V?$array@H$02@std@@V?$allocator@V?$array@H$02@std@@@2@@std@@AEBAAEBV?$allocator@V?$array@H$02@std@@@2@XZ";
	.scl	2;
	.type	32;
	.endef
	.section	.text,"xr",discard,"?_Getal@?$vector@V?$array@H$02@std@@V?$allocator@V?$array@H$02@std@@@2@@std@@AEBAAEBV?$allocator@V?$array@H$02@std@@@2@XZ"
	.globl	"?_Getal@?$vector@V?$array@H$02@std@@V?$allocator@V?$array@H$02@std@@@2@@std@@AEBAAEBV?$allocator@V?$array@H$02@std@@@2@XZ" # -- Begin function ?_Getal@?$vector@V?$array@H$02@std@@V?$allocator@V?$array@H$02@std@@@2@@std@@AEBAAEBV?$allocator@V?$array@H$02@std@@@2@XZ
	.p2align	4, 0x90
"?_Getal@?$vector@V?$array@H$02@std@@V?$allocator@V?$array@H$02@std@@@2@@std@@AEBAAEBV?$allocator@V?$array@H$02@std@@@2@XZ": # @"?_Getal@?$vector@V?$array@H$02@std@@V?$allocator@V?$array@H$02@std@@@2@@std@@AEBAAEBV?$allocator@V?$array@H$02@std@@@2@XZ"
.seh_proc "?_Getal@?$vector@V?$array@H$02@std@@V?$allocator@V?$array@H$02@std@@@2@@std@@AEBAAEBV?$allocator@V?$array@H$02@std@@@2@XZ"
# %bb.0:
	sub	rsp, 40
	.seh_stackalloc 40
	.seh_endprologue
	mov	qword ptr [rsp + 32], rcx
	mov	rcx, qword ptr [rsp + 32]
	call	"?_Get_first@?$_Compressed_pair@V?$allocator@V?$array@H$02@std@@@std@@V?$_Vector_val@U?$_Simple_types@V?$array@H$02@std@@@std@@@2@$00@std@@QEBAAEBV?$allocator@V?$array@H$02@std@@@2@XZ"
	nop
	add	rsp, 40
	ret
	.seh_endproc
                                        # -- End function
	.def	"?max@?$numeric_limits@_J@std@@SA_JXZ";
	.scl	2;
	.type	32;
	.endef
	.section	.text,"xr",discard,"?max@?$numeric_limits@_J@std@@SA_JXZ"
	.globl	"?max@?$numeric_limits@_J@std@@SA_JXZ" # -- Begin function ?max@?$numeric_limits@_J@std@@SA_JXZ
	.p2align	4, 0x90
"?max@?$numeric_limits@_J@std@@SA_JXZ": # @"?max@?$numeric_limits@_J@std@@SA_JXZ"
# %bb.0:
	movabs	rax, 9223372036854775807
	ret
                                        # -- End function
	.def	"?_Get_first@?$_Compressed_pair@V?$allocator@V?$array@H$02@std@@@std@@V?$_Vector_val@U?$_Simple_types@V?$array@H$02@std@@@std@@@2@$00@std@@QEBAAEBV?$allocator@V?$array@H$02@std@@@2@XZ";
	.scl	2;
	.type	32;
	.endef
	.section	.text,"xr",discard,"?_Get_first@?$_Compressed_pair@V?$allocator@V?$array@H$02@std@@@std@@V?$_Vector_val@U?$_Simple_types@V?$array@H$02@std@@@std@@@2@$00@std@@QEBAAEBV?$allocator@V?$array@H$02@std@@@2@XZ"
	.globl	"?_Get_first@?$_Compressed_pair@V?$allocator@V?$array@H$02@std@@@std@@V?$_Vector_val@U?$_Simple_types@V?$array@H$02@std@@@std@@@2@$00@std@@QEBAAEBV?$allocator@V?$array@H$02@std@@@2@XZ" # -- Begin function ?_Get_first@?$_Compressed_pair@V?$allocator@V?$array@H$02@std@@@std@@V?$_Vector_val@U?$_Simple_types@V?$array@H$02@std@@@std@@@2@$00@std@@QEBAAEBV?$allocator@V?$array@H$02@std@@@2@XZ
	.p2align	4, 0x90
"?_Get_first@?$_Compressed_pair@V?$allocator@V?$array@H$02@std@@@std@@V?$_Vector_val@U?$_Simple_types@V?$array@H$02@std@@@std@@@2@$00@std@@QEBAAEBV?$allocator@V?$array@H$02@std@@@2@XZ": # @"?_Get_first@?$_Compressed_pair@V?$allocator@V?$array@H$02@std@@@std@@V?$_Vector_val@U?$_Simple_types@V?$array@H$02@std@@@std@@@2@$00@std@@QEBAAEBV?$allocator@V?$array@H$02@std@@@2@XZ"
.seh_proc "?_Get_first@?$_Compressed_pair@V?$allocator@V?$array@H$02@std@@@std@@V?$_Vector_val@U?$_Simple_types@V?$array@H$02@std@@@std@@@2@$00@std@@QEBAAEBV?$allocator@V?$array@H$02@std@@@2@XZ"
# %bb.0:
	push	rax
	.seh_stackalloc 8
	.seh_endprologue
	mov	qword ptr [rsp], rcx
	mov	rax, qword ptr [rsp]
	pop	rcx
	ret
	.seh_endproc
                                        # -- End function
	.def	"?allocate@?$allocator@V?$array@H$02@std@@@std@@QEAAPEAV?$array@H$02@2@_K@Z";
	.scl	2;
	.type	32;
	.endef
	.section	.text,"xr",discard,"?allocate@?$allocator@V?$array@H$02@std@@@std@@QEAAPEAV?$array@H$02@2@_K@Z"
	.globl	"?allocate@?$allocator@V?$array@H$02@std@@@std@@QEAAPEAV?$array@H$02@2@_K@Z" # -- Begin function ?allocate@?$allocator@V?$array@H$02@std@@@std@@QEAAPEAV?$array@H$02@2@_K@Z
	.p2align	4, 0x90
"?allocate@?$allocator@V?$array@H$02@std@@@std@@QEAAPEAV?$array@H$02@2@_K@Z": # @"?allocate@?$allocator@V?$array@H$02@std@@@std@@QEAAPEAV?$array@H$02@2@_K@Z"
.seh_proc "?allocate@?$allocator@V?$array@H$02@std@@@std@@QEAAPEAV?$array@H$02@2@_K@Z"
# %bb.0:
	sub	rsp, 56
	.seh_stackalloc 56
	.seh_endprologue
	mov	qword ptr [rsp + 48], rdx
	mov	qword ptr [rsp + 40], rcx
	mov	rcx, qword ptr [rsp + 48]
	call	"??$_Get_size_of_n@$0M@@std@@YA_K_K@Z"
	mov	rcx, rax
	call	"??$_Allocate@$0BA@U_Default_allocate_traits@std@@$0A@@std@@YAPEAX_K@Z"
	nop
	add	rsp, 56
	ret
	.seh_endproc
                                        # -- End function
	.def	"??$_Allocate@$0BA@U_Default_allocate_traits@std@@$0A@@std@@YAPEAX_K@Z";
	.scl	2;
	.type	32;
	.endef
	.section	.text,"xr",discard,"??$_Allocate@$0BA@U_Default_allocate_traits@std@@$0A@@std@@YAPEAX_K@Z"
	.globl	"??$_Allocate@$0BA@U_Default_allocate_traits@std@@$0A@@std@@YAPEAX_K@Z" # -- Begin function ??$_Allocate@$0BA@U_Default_allocate_traits@std@@$0A@@std@@YAPEAX_K@Z
	.p2align	4, 0x90
"??$_Allocate@$0BA@U_Default_allocate_traits@std@@$0A@@std@@YAPEAX_K@Z": # @"??$_Allocate@$0BA@U_Default_allocate_traits@std@@$0A@@std@@YAPEAX_K@Z"
.seh_proc "??$_Allocate@$0BA@U_Default_allocate_traits@std@@$0A@@std@@YAPEAX_K@Z"
# %bb.0:
	sub	rsp, 56
	.seh_stackalloc 56
	.seh_endprologue
	mov	qword ptr [rsp + 40], rcx
	cmp	qword ptr [rsp + 40], 4096
	jb	.LBB51_2
# %bb.1:
	mov	rcx, qword ptr [rsp + 40]
	call	"??$_Allocate_manually_vector_aligned@U_Default_allocate_traits@std@@@std@@YAPEAX_K@Z"
	mov	qword ptr [rsp + 48], rax
	jmp	.LBB51_5
.LBB51_2:
	cmp	qword ptr [rsp + 40], 0
	je	.LBB51_4
# %bb.3:
	mov	rcx, qword ptr [rsp + 40]
	call	"?_Allocate@_Default_allocate_traits@std@@SAPEAX_K@Z"
	mov	qword ptr [rsp + 48], rax
	jmp	.LBB51_5
.LBB51_4:
	mov	qword ptr [rsp + 48], 0
.LBB51_5:
	mov	rax, qword ptr [rsp + 48]
	add	rsp, 56
	ret
	.seh_endproc
                                        # -- End function
	.def	"??$_Get_size_of_n@$0M@@std@@YA_K_K@Z";
	.scl	2;
	.type	32;
	.endef
	.section	.text,"xr",discard,"??$_Get_size_of_n@$0M@@std@@YA_K_K@Z"
	.globl	"??$_Get_size_of_n@$0M@@std@@YA_K_K@Z" # -- Begin function ??$_Get_size_of_n@$0M@@std@@YA_K_K@Z
	.p2align	4, 0x90
"??$_Get_size_of_n@$0M@@std@@YA_K_K@Z": # @"??$_Get_size_of_n@$0M@@std@@YA_K_K@Z"
.seh_proc "??$_Get_size_of_n@$0M@@std@@YA_K_K@Z"
# %bb.0:
	sub	rsp, 56
	.seh_stackalloc 56
	.seh_endprologue
	mov	qword ptr [rsp + 48], rcx
	mov	byte ptr [rsp + 47], 1
	movabs	rax, 1537228672809129301
	mov	qword ptr [rsp + 32], rax
	movabs	rax, 1537228672809129301
	cmp	qword ptr [rsp + 48], rax
	jbe	.LBB52_2
# %bb.1:
	call	"?_Throw_bad_array_new_length@std@@YAXXZ"
.LBB52_2:
	imul	rax, qword ptr [rsp + 48], 12
	add	rsp, 56
	ret
	.seh_endproc
                                        # -- End function
	.def	"??$_Allocate_manually_vector_aligned@U_Default_allocate_traits@std@@@std@@YAPEAX_K@Z";
	.scl	2;
	.type	32;
	.endef
	.section	.text,"xr",discard,"??$_Allocate_manually_vector_aligned@U_Default_allocate_traits@std@@@std@@YAPEAX_K@Z"
	.globl	"??$_Allocate_manually_vector_aligned@U_Default_allocate_traits@std@@@std@@YAPEAX_K@Z" # -- Begin function ??$_Allocate_manually_vector_aligned@U_Default_allocate_traits@std@@@std@@YAPEAX_K@Z
	.p2align	4, 0x90
"??$_Allocate_manually_vector_aligned@U_Default_allocate_traits@std@@@std@@YAPEAX_K@Z": # @"??$_Allocate_manually_vector_aligned@U_Default_allocate_traits@std@@@std@@YAPEAX_K@Z"
.seh_proc "??$_Allocate_manually_vector_aligned@U_Default_allocate_traits@std@@@std@@YAPEAX_K@Z"
# %bb.0:
	sub	rsp, 72
	.seh_stackalloc 72
	.seh_endprologue
	mov	qword ptr [rsp + 64], rcx
	mov	rax, qword ptr [rsp + 64]
	add	rax, 39
	mov	qword ptr [rsp + 56], rax
	mov	rax, qword ptr [rsp + 56]
	cmp	rax, qword ptr [rsp + 64]
	ja	.LBB53_2
# %bb.1:
	call	"?_Throw_bad_array_new_length@std@@YAXXZ"
.LBB53_2:
	mov	rcx, qword ptr [rsp + 56]
	call	"?_Allocate@_Default_allocate_traits@std@@SAPEAX_K@Z"
	mov	qword ptr [rsp + 48], rax
# %bb.3:
	cmp	qword ptr [rsp + 48], 0
	je	.LBB53_5
# %bb.4:
	jmp	.LBB53_7
.LBB53_5:
	jmp	.LBB53_6
.LBB53_6:
	call	_invalid_parameter_noinfo_noreturn
.LBB53_7:
	jmp	.LBB53_8
.LBB53_8:
	mov	rax, qword ptr [rsp + 48]
	add	rax, 39
	and	rax, -32
	mov	qword ptr [rsp + 40], rax
	mov	rcx, qword ptr [rsp + 48]
	mov	rax, qword ptr [rsp + 40]
	mov	qword ptr [rax - 8], rcx
	mov	rax, qword ptr [rsp + 40]
	add	rsp, 72
	ret
	.seh_endproc
                                        # -- End function
	.def	"?_Allocate@_Default_allocate_traits@std@@SAPEAX_K@Z";
	.scl	2;
	.type	32;
	.endef
	.section	.text,"xr",discard,"?_Allocate@_Default_allocate_traits@std@@SAPEAX_K@Z"
	.globl	"?_Allocate@_Default_allocate_traits@std@@SAPEAX_K@Z" # -- Begin function ?_Allocate@_Default_allocate_traits@std@@SAPEAX_K@Z
	.p2align	4, 0x90
"?_Allocate@_Default_allocate_traits@std@@SAPEAX_K@Z": # @"?_Allocate@_Default_allocate_traits@std@@SAPEAX_K@Z"
.seh_proc "?_Allocate@_Default_allocate_traits@std@@SAPEAX_K@Z"
# %bb.0:
	sub	rsp, 40
	.seh_stackalloc 40
	.seh_endprologue
	mov	qword ptr [rsp + 32], rcx
	mov	rcx, qword ptr [rsp + 32]
	call	"??2@YAPEAX_K@Z"
	nop
	add	rsp, 40
	ret
	.seh_endproc
                                        # -- End function
	.def	"?_Throw_bad_array_new_length@std@@YAXXZ";
	.scl	2;
	.type	32;
	.endef
	.section	.text,"xr",discard,"?_Throw_bad_array_new_length@std@@YAXXZ"
	.globl	"?_Throw_bad_array_new_length@std@@YAXXZ" # -- Begin function ?_Throw_bad_array_new_length@std@@YAXXZ
	.p2align	4, 0x90
"?_Throw_bad_array_new_length@std@@YAXXZ": # @"?_Throw_bad_array_new_length@std@@YAXXZ"
.seh_proc "?_Throw_bad_array_new_length@std@@YAXXZ"
# %bb.0:
	sub	rsp, 56
	.seh_stackalloc 56
	.seh_endprologue
	lea	rcx, [rsp + 32]
	call	"??0bad_array_new_length@std@@QEAA@XZ"
	lea	rcx, [rsp + 32]
	lea	rdx, [rip + "_TI3?AVbad_array_new_length@std@@"]
	call	_CxxThrowException
	int3
	.seh_endproc
                                        # -- End function
	.def	"??0bad_array_new_length@std@@QEAA@XZ";
	.scl	2;
	.type	32;
	.endef
	.section	.text,"xr",discard,"??0bad_array_new_length@std@@QEAA@XZ"
	.globl	"??0bad_array_new_length@std@@QEAA@XZ" # -- Begin function ??0bad_array_new_length@std@@QEAA@XZ
	.p2align	4, 0x90
"??0bad_array_new_length@std@@QEAA@XZ": # @"??0bad_array_new_length@std@@QEAA@XZ"
.seh_proc "??0bad_array_new_length@std@@QEAA@XZ"
# %bb.0:
	sub	rsp, 56
	.seh_stackalloc 56
	.seh_endprologue
	mov	qword ptr [rsp + 48], rcx
	mov	rcx, qword ptr [rsp + 48]
	mov	qword ptr [rsp + 40], rcx       # 8-byte Spill
	lea	rdx, [rip + "??_C@_0BF@KINCDENJ@bad?5array?5new?5length?$AA@"]
	call	"??0bad_alloc@std@@AEAA@QEBD@Z"
                                        # kill: def $rcx killed $rax
	mov	rax, qword ptr [rsp + 40]       # 8-byte Reload
	lea	rcx, [rip + "??_7bad_array_new_length@std@@6B@"]
	mov	qword ptr [rax], rcx
	add	rsp, 56
	ret
	.seh_endproc
                                        # -- End function
	.def	"??0bad_array_new_length@std@@QEAA@AEBV01@@Z";
	.scl	2;
	.type	32;
	.endef
	.section	.text,"xr",discard,"??0bad_array_new_length@std@@QEAA@AEBV01@@Z"
	.globl	"??0bad_array_new_length@std@@QEAA@AEBV01@@Z" # -- Begin function ??0bad_array_new_length@std@@QEAA@AEBV01@@Z
	.p2align	4, 0x90
"??0bad_array_new_length@std@@QEAA@AEBV01@@Z": # @"??0bad_array_new_length@std@@QEAA@AEBV01@@Z"
.seh_proc "??0bad_array_new_length@std@@QEAA@AEBV01@@Z"
# %bb.0:
	sub	rsp, 56
	.seh_stackalloc 56
	.seh_endprologue
	mov	qword ptr [rsp + 48], rdx
	mov	qword ptr [rsp + 40], rcx
	mov	rcx, qword ptr [rsp + 40]
	mov	qword ptr [rsp + 32], rcx       # 8-byte Spill
	mov	rdx, qword ptr [rsp + 48]
	call	"??0bad_alloc@std@@QEAA@AEBV01@@Z"
                                        # kill: def $rcx killed $rax
	mov	rax, qword ptr [rsp + 32]       # 8-byte Reload
	lea	rcx, [rip + "??_7bad_array_new_length@std@@6B@"]
	mov	qword ptr [rax], rcx
	add	rsp, 56
	ret
	.seh_endproc
                                        # -- End function
	.def	"??0bad_alloc@std@@QEAA@AEBV01@@Z";
	.scl	2;
	.type	32;
	.endef
	.section	.text,"xr",discard,"??0bad_alloc@std@@QEAA@AEBV01@@Z"
	.globl	"??0bad_alloc@std@@QEAA@AEBV01@@Z" # -- Begin function ??0bad_alloc@std@@QEAA@AEBV01@@Z
	.p2align	4, 0x90
"??0bad_alloc@std@@QEAA@AEBV01@@Z":     # @"??0bad_alloc@std@@QEAA@AEBV01@@Z"
.seh_proc "??0bad_alloc@std@@QEAA@AEBV01@@Z"
# %bb.0:
	sub	rsp, 56
	.seh_stackalloc 56
	.seh_endprologue
	mov	qword ptr [rsp + 48], rdx
	mov	qword ptr [rsp + 40], rcx
	mov	rcx, qword ptr [rsp + 40]
	mov	qword ptr [rsp + 32], rcx       # 8-byte Spill
	mov	rdx, qword ptr [rsp + 48]
	call	"??0exception@std@@QEAA@AEBV01@@Z"
                                        # kill: def $rcx killed $rax
	mov	rax, qword ptr [rsp + 32]       # 8-byte Reload
	lea	rcx, [rip + "??_7bad_alloc@std@@6B@"]
	mov	qword ptr [rax], rcx
	add	rsp, 56
	ret
	.seh_endproc
                                        # -- End function
	.def	"??0exception@std@@QEAA@AEBV01@@Z";
	.scl	2;
	.type	32;
	.endef
	.section	.text,"xr",discard,"??0exception@std@@QEAA@AEBV01@@Z"
	.globl	"??0exception@std@@QEAA@AEBV01@@Z" # -- Begin function ??0exception@std@@QEAA@AEBV01@@Z
	.p2align	4, 0x90
"??0exception@std@@QEAA@AEBV01@@Z":     # @"??0exception@std@@QEAA@AEBV01@@Z"
.Lfunc_begin4:
.seh_proc "??0exception@std@@QEAA@AEBV01@@Z"
	.seh_handler __CxxFrameHandler3, @unwind, @except
# %bb.0:
	push	rbp
	.seh_pushreg rbp
	sub	rsp, 64
	.seh_stackalloc 64
	lea	rbp, [rsp + 64]
	.seh_setframe rbp, 64
	.seh_endprologue
	mov	qword ptr [rbp - 8], -2
	mov	qword ptr [rbp - 16], rdx
	mov	qword ptr [rbp - 24], rcx
	mov	rax, qword ptr [rbp - 24]
	mov	qword ptr [rbp - 32], rax       # 8-byte Spill
	lea	rcx, [rip + "??_7exception@std@@6B@"]
	mov	qword ptr [rax], rcx
	mov	rdx, rax
	add	rdx, 8
	xorps	xmm0, xmm0
	movups	xmmword ptr [rax + 8], xmm0
	mov	rcx, qword ptr [rbp - 16]
	add	rcx, 8
.Ltmp10:
	call	__std_exception_copy
.Ltmp11:
	jmp	.LBB59_1
.LBB59_1:
	mov	rax, qword ptr [rbp - 32]       # 8-byte Reload
	add	rsp, 64
	pop	rbp
	ret
	.seh_handlerdata
	.long	("$cppxdata$??0exception@std@@QEAA@AEBV01@@Z")@IMGREL
	.section	.text,"xr",discard,"??0exception@std@@QEAA@AEBV01@@Z"
	.seh_endproc
	.def	"?dtor$2@?0???0exception@std@@QEAA@AEBV01@@Z@4HA";
	.scl	3;
	.type	32;
	.endef
	.p2align	4, 0x90
"?dtor$2@?0???0exception@std@@QEAA@AEBV01@@Z@4HA":
.seh_proc "?dtor$2@?0???0exception@std@@QEAA@AEBV01@@Z@4HA"
.LBB59_2:
	mov	qword ptr [rsp + 16], rdx
	push	rbp
	.seh_pushreg rbp
	sub	rsp, 32
	.seh_stackalloc 32
	lea	rbp, [rdx + 64]
	.seh_endprologue
	call	__std_terminate
	int3
.Lfunc_end4:
	.seh_handlerdata
	.section	.text,"xr",discard,"??0exception@std@@QEAA@AEBV01@@Z"
	.seh_endproc
	.section	.xdata,"dr",associative,"??0exception@std@@QEAA@AEBV01@@Z"
	.p2align	2
"$cppxdata$??0exception@std@@QEAA@AEBV01@@Z":
	.long	429065506                       # MagicNumber
	.long	1                               # MaxState
	.long	("$stateUnwindMap$??0exception@std@@QEAA@AEBV01@@Z")@IMGREL # UnwindMap
	.long	0                               # NumTryBlocks
	.long	0                               # TryBlockMap
	.long	3                               # IPMapEntries
	.long	("$ip2state$??0exception@std@@QEAA@AEBV01@@Z")@IMGREL # IPToStateXData
	.long	56                              # UnwindHelp
	.long	0                               # ESTypeList
	.long	1                               # EHFlags
"$stateUnwindMap$??0exception@std@@QEAA@AEBV01@@Z":
	.long	-1                              # ToState
	.long	"?dtor$2@?0???0exception@std@@QEAA@AEBV01@@Z@4HA"@IMGREL # Action
"$ip2state$??0exception@std@@QEAA@AEBV01@@Z":
	.long	.Lfunc_begin4@IMGREL            # IP
	.long	-1                              # ToState
	.long	.Ltmp10@IMGREL+1                # IP
	.long	0                               # ToState
	.long	.Ltmp11@IMGREL+1                # IP
	.long	-1                              # ToState
	.section	.text,"xr",discard,"??0exception@std@@QEAA@AEBV01@@Z"
                                        # -- End function
	.def	"??1bad_array_new_length@std@@UEAA@XZ";
	.scl	2;
	.type	32;
	.endef
	.section	.text,"xr",discard,"??1bad_array_new_length@std@@UEAA@XZ"
	.globl	"??1bad_array_new_length@std@@UEAA@XZ" # -- Begin function ??1bad_array_new_length@std@@UEAA@XZ
	.p2align	4, 0x90
"??1bad_array_new_length@std@@UEAA@XZ": # @"??1bad_array_new_length@std@@UEAA@XZ"
.seh_proc "??1bad_array_new_length@std@@UEAA@XZ"
# %bb.0:
	sub	rsp, 40
	.seh_stackalloc 40
	.seh_endprologue
	mov	qword ptr [rsp + 32], rcx
	mov	rcx, qword ptr [rsp + 32]
	call	"??1bad_alloc@std@@UEAA@XZ"
	nop
	add	rsp, 40
	ret
	.seh_endproc
                                        # -- End function
	.def	"??0bad_alloc@std@@AEAA@QEBD@Z";
	.scl	2;
	.type	32;
	.endef
	.section	.text,"xr",discard,"??0bad_alloc@std@@AEAA@QEBD@Z"
	.globl	"??0bad_alloc@std@@AEAA@QEBD@Z" # -- Begin function ??0bad_alloc@std@@AEAA@QEBD@Z
	.p2align	4, 0x90
"??0bad_alloc@std@@AEAA@QEBD@Z":        # @"??0bad_alloc@std@@AEAA@QEBD@Z"
.seh_proc "??0bad_alloc@std@@AEAA@QEBD@Z"
# %bb.0:
	sub	rsp, 56
	.seh_stackalloc 56
	.seh_endprologue
	mov	qword ptr [rsp + 48], rdx
	mov	qword ptr [rsp + 40], rcx
	mov	rcx, qword ptr [rsp + 40]
	mov	qword ptr [rsp + 32], rcx       # 8-byte Spill
	mov	rdx, qword ptr [rsp + 48]
	mov	r8d, 1
	call	"??0exception@std@@QEAA@QEBDH@Z"
                                        # kill: def $rcx killed $rax
	mov	rax, qword ptr [rsp + 32]       # 8-byte Reload
	lea	rcx, [rip + "??_7bad_alloc@std@@6B@"]
	mov	qword ptr [rax], rcx
	add	rsp, 56
	ret
	.seh_endproc
                                        # -- End function
	.def	"??_Gbad_array_new_length@std@@UEAAPEAXI@Z";
	.scl	2;
	.type	32;
	.endef
	.section	.text,"xr",discard,"??_Gbad_array_new_length@std@@UEAAPEAXI@Z"
	.globl	"??_Gbad_array_new_length@std@@UEAAPEAXI@Z" # -- Begin function ??_Gbad_array_new_length@std@@UEAAPEAXI@Z
	.p2align	4, 0x90
"??_Gbad_array_new_length@std@@UEAAPEAXI@Z": # @"??_Gbad_array_new_length@std@@UEAAPEAXI@Z"
.seh_proc "??_Gbad_array_new_length@std@@UEAAPEAXI@Z"
# %bb.0:
	sub	rsp, 72
	.seh_stackalloc 72
	.seh_endprologue
	mov	dword ptr [rsp + 60], edx
	mov	qword ptr [rsp + 48], rcx
	mov	rcx, qword ptr [rsp + 48]
	mov	qword ptr [rsp + 32], rcx       # 8-byte Spill
	mov	qword ptr [rsp + 64], rcx
	mov	eax, dword ptr [rsp + 60]
	mov	dword ptr [rsp + 44], eax       # 4-byte Spill
	call	"??1bad_array_new_length@std@@UEAA@XZ"
	mov	eax, dword ptr [rsp + 44]       # 4-byte Reload
	cmp	eax, 0
	je	.LBB62_2
# %bb.1:
	mov	rcx, qword ptr [rsp + 32]       # 8-byte Reload
	call	"??3@YAXPEAX@Z"
.LBB62_2:
	mov	rax, qword ptr [rsp + 64]
	add	rsp, 72
	ret
	.seh_endproc
                                        # -- End function
	.def	"?what@exception@std@@UEBAPEBDXZ";
	.scl	2;
	.type	32;
	.endef
	.section	.text,"xr",discard,"?what@exception@std@@UEBAPEBDXZ"
	.globl	"?what@exception@std@@UEBAPEBDXZ" # -- Begin function ?what@exception@std@@UEBAPEBDXZ
	.p2align	4, 0x90
"?what@exception@std@@UEBAPEBDXZ":      # @"?what@exception@std@@UEBAPEBDXZ"
.seh_proc "?what@exception@std@@UEBAPEBDXZ"
# %bb.0:
	sub	rsp, 24
	.seh_stackalloc 24
	.seh_endprologue
	mov	qword ptr [rsp + 16], rcx
	mov	rax, qword ptr [rsp + 16]
	mov	qword ptr [rsp + 8], rax        # 8-byte Spill
	cmp	qword ptr [rax + 8], 0
	je	.LBB63_2
# %bb.1:
	mov	rax, qword ptr [rsp + 8]        # 8-byte Reload
	mov	rax, qword ptr [rax + 8]
	mov	qword ptr [rsp], rax            # 8-byte Spill
	jmp	.LBB63_3
.LBB63_2:
	lea	rax, [rip + "??_C@_0BC@EOODALEL@Unknown?5exception?$AA@"]
	mov	qword ptr [rsp], rax            # 8-byte Spill
	jmp	.LBB63_3
.LBB63_3:
	mov	rax, qword ptr [rsp]            # 8-byte Reload
	add	rsp, 24
	ret
	.seh_endproc
                                        # -- End function
	.def	"??0exception@std@@QEAA@QEBDH@Z";
	.scl	2;
	.type	32;
	.endef
	.section	.text,"xr",discard,"??0exception@std@@QEAA@QEBDH@Z"
	.globl	"??0exception@std@@QEAA@QEBDH@Z" # -- Begin function ??0exception@std@@QEAA@QEBDH@Z
	.p2align	4, 0x90
"??0exception@std@@QEAA@QEBDH@Z":       # @"??0exception@std@@QEAA@QEBDH@Z"
.seh_proc "??0exception@std@@QEAA@QEBDH@Z"
# %bb.0:
	sub	rsp, 72
	.seh_stackalloc 72
	.seh_endprologue
	mov	dword ptr [rsp + 68], r8d
	mov	qword ptr [rsp + 56], rdx
	mov	qword ptr [rsp + 48], rcx
	mov	rcx, qword ptr [rsp + 48]
	mov	qword ptr [rsp + 40], rcx       # 8-byte Spill
	lea	rax, [rip + "??_7exception@std@@6B@"]
	mov	qword ptr [rcx], rax
	add	rcx, 8
	xor	edx, edx
	mov	r8d, 16
	call	memset
	mov	rax, qword ptr [rsp + 40]       # 8-byte Reload
	mov	rcx, qword ptr [rsp + 56]
	mov	qword ptr [rax + 8], rcx
	add	rsp, 72
	ret
	.seh_endproc
                                        # -- End function
	.def	"??_Gbad_alloc@std@@UEAAPEAXI@Z";
	.scl	2;
	.type	32;
	.endef
	.section	.text,"xr",discard,"??_Gbad_alloc@std@@UEAAPEAXI@Z"
	.globl	"??_Gbad_alloc@std@@UEAAPEAXI@Z" # -- Begin function ??_Gbad_alloc@std@@UEAAPEAXI@Z
	.p2align	4, 0x90
"??_Gbad_alloc@std@@UEAAPEAXI@Z":       # @"??_Gbad_alloc@std@@UEAAPEAXI@Z"
.seh_proc "??_Gbad_alloc@std@@UEAAPEAXI@Z"
# %bb.0:
	sub	rsp, 72
	.seh_stackalloc 72
	.seh_endprologue
	mov	dword ptr [rsp + 60], edx
	mov	qword ptr [rsp + 48], rcx
	mov	rcx, qword ptr [rsp + 48]
	mov	qword ptr [rsp + 32], rcx       # 8-byte Spill
	mov	qword ptr [rsp + 64], rcx
	mov	eax, dword ptr [rsp + 60]
	mov	dword ptr [rsp + 44], eax       # 4-byte Spill
	call	"??1bad_alloc@std@@UEAA@XZ"
	mov	eax, dword ptr [rsp + 44]       # 4-byte Reload
	cmp	eax, 0
	je	.LBB65_2
# %bb.1:
	mov	rcx, qword ptr [rsp + 32]       # 8-byte Reload
	call	"??3@YAXPEAX@Z"
.LBB65_2:
	mov	rax, qword ptr [rsp + 64]
	add	rsp, 72
	ret
	.seh_endproc
                                        # -- End function
	.def	"??_Gexception@std@@UEAAPEAXI@Z";
	.scl	2;
	.type	32;
	.endef
	.section	.text,"xr",discard,"??_Gexception@std@@UEAAPEAXI@Z"
	.globl	"??_Gexception@std@@UEAAPEAXI@Z" # -- Begin function ??_Gexception@std@@UEAAPEAXI@Z
	.p2align	4, 0x90
"??_Gexception@std@@UEAAPEAXI@Z":       # @"??_Gexception@std@@UEAAPEAXI@Z"
.seh_proc "??_Gexception@std@@UEAAPEAXI@Z"
# %bb.0:
	sub	rsp, 72
	.seh_stackalloc 72
	.seh_endprologue
	mov	dword ptr [rsp + 60], edx
	mov	qword ptr [rsp + 48], rcx
	mov	rcx, qword ptr [rsp + 48]
	mov	qword ptr [rsp + 32], rcx       # 8-byte Spill
	mov	qword ptr [rsp + 64], rcx
	mov	eax, dword ptr [rsp + 60]
	mov	dword ptr [rsp + 44], eax       # 4-byte Spill
	call	"??1exception@std@@UEAA@XZ"
	mov	eax, dword ptr [rsp + 44]       # 4-byte Reload
	cmp	eax, 0
	je	.LBB66_2
# %bb.1:
	mov	rcx, qword ptr [rsp + 32]       # 8-byte Reload
	call	"??3@YAXPEAX@Z"
.LBB66_2:
	mov	rax, qword ptr [rsp + 64]
	add	rsp, 72
	ret
	.seh_endproc
                                        # -- End function
	.def	"??1exception@std@@UEAA@XZ";
	.scl	2;
	.type	32;
	.endef
	.section	.text,"xr",discard,"??1exception@std@@UEAA@XZ"
	.globl	"??1exception@std@@UEAA@XZ"     # -- Begin function ??1exception@std@@UEAA@XZ
	.p2align	4, 0x90
"??1exception@std@@UEAA@XZ":            # @"??1exception@std@@UEAA@XZ"
.Lfunc_begin5:
.seh_proc "??1exception@std@@UEAA@XZ"
	.seh_handler __CxxFrameHandler3, @unwind, @except
# %bb.0:
	push	rbp
	.seh_pushreg rbp
	sub	rsp, 48
	.seh_stackalloc 48
	lea	rbp, [rsp + 48]
	.seh_setframe rbp, 48
	.seh_endprologue
	mov	qword ptr [rbp - 8], -2
	mov	qword ptr [rbp - 16], rcx
	mov	rcx, qword ptr [rbp - 16]
	lea	rax, [rip + "??_7exception@std@@6B@"]
	mov	qword ptr [rcx], rax
	add	rcx, 8
.Ltmp12:
	call	__std_exception_destroy
.Ltmp13:
	jmp	.LBB67_1
.LBB67_1:
	add	rsp, 48
	pop	rbp
	ret
	.seh_handlerdata
	.long	("$cppxdata$??1exception@std@@UEAA@XZ")@IMGREL
	.section	.text,"xr",discard,"??1exception@std@@UEAA@XZ"
	.seh_endproc
	.def	"?dtor$2@?0???1exception@std@@UEAA@XZ@4HA";
	.scl	3;
	.type	32;
	.endef
	.p2align	4, 0x90
"?dtor$2@?0???1exception@std@@UEAA@XZ@4HA":
.seh_proc "?dtor$2@?0???1exception@std@@UEAA@XZ@4HA"
.LBB67_2:
	mov	qword ptr [rsp + 16], rdx
	push	rbp
	.seh_pushreg rbp
	sub	rsp, 32
	.seh_stackalloc 32
	lea	rbp, [rdx + 48]
	.seh_endprologue
	call	__std_terminate
	int3
.Lfunc_end5:
	.seh_handlerdata
	.section	.text,"xr",discard,"??1exception@std@@UEAA@XZ"
	.seh_endproc
	.section	.xdata,"dr",associative,"??1exception@std@@UEAA@XZ"
	.p2align	2
"$cppxdata$??1exception@std@@UEAA@XZ":
	.long	429065506                       # MagicNumber
	.long	1                               # MaxState
	.long	("$stateUnwindMap$??1exception@std@@UEAA@XZ")@IMGREL # UnwindMap
	.long	0                               # NumTryBlocks
	.long	0                               # TryBlockMap
	.long	3                               # IPMapEntries
	.long	("$ip2state$??1exception@std@@UEAA@XZ")@IMGREL # IPToStateXData
	.long	40                              # UnwindHelp
	.long	0                               # ESTypeList
	.long	1                               # EHFlags
"$stateUnwindMap$??1exception@std@@UEAA@XZ":
	.long	-1                              # ToState
	.long	"?dtor$2@?0???1exception@std@@UEAA@XZ@4HA"@IMGREL # Action
"$ip2state$??1exception@std@@UEAA@XZ":
	.long	.Lfunc_begin5@IMGREL            # IP
	.long	-1                              # ToState
	.long	.Ltmp12@IMGREL+1                # IP
	.long	0                               # ToState
	.long	.Ltmp13@IMGREL+1                # IP
	.long	-1                              # ToState
	.section	.text,"xr",discard,"??1exception@std@@UEAA@XZ"
                                        # -- End function
	.def	"??1bad_alloc@std@@UEAA@XZ";
	.scl	2;
	.type	32;
	.endef
	.section	.text,"xr",discard,"??1bad_alloc@std@@UEAA@XZ"
	.globl	"??1bad_alloc@std@@UEAA@XZ"     # -- Begin function ??1bad_alloc@std@@UEAA@XZ
	.p2align	4, 0x90
"??1bad_alloc@std@@UEAA@XZ":            # @"??1bad_alloc@std@@UEAA@XZ"
.seh_proc "??1bad_alloc@std@@UEAA@XZ"
# %bb.0:
	sub	rsp, 40
	.seh_stackalloc 40
	.seh_endprologue
	mov	qword ptr [rsp + 32], rcx
	mov	rcx, qword ptr [rsp + 32]
	call	"??1exception@std@@UEAA@XZ"
	nop
	add	rsp, 40
	ret
	.seh_endproc
                                        # -- End function
	.def	"??$_Unwrap_iter@PEBV?$array@H$02@std@@PEBV12@@ranges@std@@YA?A?<decltype-auto>@@$$QEAPEBV?$array@H$02@1@@Z";
	.scl	2;
	.type	32;
	.endef
	.section	.text,"xr",discard,"??$_Unwrap_iter@PEBV?$array@H$02@std@@PEBV12@@ranges@std@@YA?A?<decltype-auto>@@$$QEAPEBV?$array@H$02@1@@Z"
	.globl	"??$_Unwrap_iter@PEBV?$array@H$02@std@@PEBV12@@ranges@std@@YA?A?<decltype-auto>@@$$QEAPEBV?$array@H$02@1@@Z" # -- Begin function ??$_Unwrap_iter@PEBV?$array@H$02@std@@PEBV12@@ranges@std@@YA?A?<decltype-auto>@@$$QEAPEBV?$array@H$02@1@@Z
	.p2align	4, 0x90
"??$_Unwrap_iter@PEBV?$array@H$02@std@@PEBV12@@ranges@std@@YA?A?<decltype-auto>@@$$QEAPEBV?$array@H$02@1@@Z": # @"??$_Unwrap_iter@PEBV?$array@H$02@std@@PEBV12@@ranges@std@@YA?A?<decltype-auto>@@$$QEAPEBV?$array@H$02@1@@Z"
.seh_proc "??$_Unwrap_iter@PEBV?$array@H$02@std@@PEBV12@@ranges@std@@YA?A?<decltype-auto>@@$$QEAPEBV?$array@H$02@1@@Z"
# %bb.0:
	push	rax
	.seh_stackalloc 8
	.seh_endprologue
	mov	qword ptr [rsp], rcx
	mov	rax, qword ptr [rsp]
	mov	rax, qword ptr [rax]
	pop	rcx
	ret
	.seh_endproc
                                        # -- End function
	.def	"??$_Unwrap_sent@PEBV?$array@H$02@std@@PEBV12@@ranges@std@@YA?A?<decltype-auto>@@$$QEAPEBV?$array@H$02@1@@Z";
	.scl	2;
	.type	32;
	.endef
	.section	.text,"xr",discard,"??$_Unwrap_sent@PEBV?$array@H$02@std@@PEBV12@@ranges@std@@YA?A?<decltype-auto>@@$$QEAPEBV?$array@H$02@1@@Z"
	.globl	"??$_Unwrap_sent@PEBV?$array@H$02@std@@PEBV12@@ranges@std@@YA?A?<decltype-auto>@@$$QEAPEBV?$array@H$02@1@@Z" # -- Begin function ??$_Unwrap_sent@PEBV?$array@H$02@std@@PEBV12@@ranges@std@@YA?A?<decltype-auto>@@$$QEAPEBV?$array@H$02@1@@Z
	.p2align	4, 0x90
"??$_Unwrap_sent@PEBV?$array@H$02@std@@PEBV12@@ranges@std@@YA?A?<decltype-auto>@@$$QEAPEBV?$array@H$02@1@@Z": # @"??$_Unwrap_sent@PEBV?$array@H$02@std@@PEBV12@@ranges@std@@YA?A?<decltype-auto>@@$$QEAPEBV?$array@H$02@1@@Z"
.seh_proc "??$_Unwrap_sent@PEBV?$array@H$02@std@@PEBV12@@ranges@std@@YA?A?<decltype-auto>@@$$QEAPEBV?$array@H$02@1@@Z"
# %bb.0:
	push	rax
	.seh_stackalloc 8
	.seh_endprologue
	mov	qword ptr [rsp], rcx
	mov	rax, qword ptr [rsp]
	mov	rax, qword ptr [rax]
	pop	rcx
	ret
	.seh_endproc
                                        # -- End function
	.def	"??$_Copy_memmove@PEBV?$array@H$02@std@@PEAV12@@std@@YAPEAV?$array@H$02@0@PEBV10@0PEAV10@@Z";
	.scl	2;
	.type	32;
	.endef
	.section	.text,"xr",discard,"??$_Copy_memmove@PEBV?$array@H$02@std@@PEAV12@@std@@YAPEAV?$array@H$02@0@PEBV10@0PEAV10@@Z"
	.globl	"??$_Copy_memmove@PEBV?$array@H$02@std@@PEAV12@@std@@YAPEAV?$array@H$02@0@PEBV10@0PEAV10@@Z" # -- Begin function ??$_Copy_memmove@PEBV?$array@H$02@std@@PEAV12@@std@@YAPEAV?$array@H$02@0@PEBV10@0PEAV10@@Z
	.p2align	4, 0x90
"??$_Copy_memmove@PEBV?$array@H$02@std@@PEAV12@@std@@YAPEAV?$array@H$02@0@PEBV10@0PEAV10@@Z": # @"??$_Copy_memmove@PEBV?$array@H$02@std@@PEAV12@@std@@YAPEAV?$array@H$02@0@PEBV10@0PEAV10@@Z"
.seh_proc "??$_Copy_memmove@PEBV?$array@H$02@std@@PEAV12@@std@@YAPEAV?$array@H$02@0@PEBV10@0PEAV10@@Z"
# %bb.0:
	sub	rsp, 120
	.seh_stackalloc 120
	.seh_endprologue
	mov	qword ptr [rsp + 112], r8
	mov	qword ptr [rsp + 104], rdx
	mov	qword ptr [rsp + 96], rcx
	lea	rcx, [rsp + 96]
	call	"??$_To_address@PEBV?$array@H$02@std@@@std@@YA?A?<auto>@@AEBQEBV?$array@H$02@0@@Z"
	mov	qword ptr [rsp + 88], rax
	lea	rcx, [rsp + 104]
	call	"??$_To_address@PEBV?$array@H$02@std@@@std@@YA?A?<auto>@@AEBQEBV?$array@H$02@0@@Z"
	mov	qword ptr [rsp + 80], rax
	lea	rcx, [rsp + 112]
	call	"??$_To_address@PEAV?$array@H$02@std@@@std@@YA?A?<auto>@@AEBQEAV?$array@H$02@0@@Z"
	mov	qword ptr [rsp + 72], rax
	mov	rax, qword ptr [rsp + 88]
	mov	qword ptr [rsp + 64], rax
	mov	rax, qword ptr [rsp + 80]
	mov	qword ptr [rsp + 56], rax
	mov	rax, qword ptr [rsp + 72]
	mov	qword ptr [rsp + 48], rax
	mov	rax, qword ptr [rsp + 56]
	mov	rcx, qword ptr [rsp + 64]
	sub	rax, rcx
	mov	qword ptr [rsp + 40], rax
	mov	rcx, qword ptr [rsp + 48]
	mov	rdx, qword ptr [rsp + 64]
	mov	r8, qword ptr [rsp + 40]
	call	memmove
	mov	rax, qword ptr [rsp + 48]
	add	rax, qword ptr [rsp + 40]
	add	rsp, 120
	ret
	.seh_endproc
                                        # -- End function
	.def	"??$_Unfancy@V?$array@H$02@std@@@std@@YAPEAV?$array@H$02@0@PEAV10@@Z";
	.scl	2;
	.type	32;
	.endef
	.section	.text,"xr",discard,"??$_Unfancy@V?$array@H$02@std@@@std@@YAPEAV?$array@H$02@0@PEAV10@@Z"
	.globl	"??$_Unfancy@V?$array@H$02@std@@@std@@YAPEAV?$array@H$02@0@PEAV10@@Z" # -- Begin function ??$_Unfancy@V?$array@H$02@std@@@std@@YAPEAV?$array@H$02@0@PEAV10@@Z
	.p2align	4, 0x90
"??$_Unfancy@V?$array@H$02@std@@@std@@YAPEAV?$array@H$02@0@PEAV10@@Z": # @"??$_Unfancy@V?$array@H$02@std@@@std@@YAPEAV?$array@H$02@0@PEAV10@@Z"
.seh_proc "??$_Unfancy@V?$array@H$02@std@@@std@@YAPEAV?$array@H$02@0@PEAV10@@Z"
# %bb.0:
	push	rax
	.seh_stackalloc 8
	.seh_endprologue
	mov	qword ptr [rsp], rcx
	mov	rax, qword ptr [rsp]
	pop	rcx
	ret
	.seh_endproc
                                        # -- End function
	.def	"??$_To_address@PEBV?$array@H$02@std@@@std@@YA?A?<auto>@@AEBQEBV?$array@H$02@0@@Z";
	.scl	2;
	.type	32;
	.endef
	.section	.text,"xr",discard,"??$_To_address@PEBV?$array@H$02@std@@@std@@YA?A?<auto>@@AEBQEBV?$array@H$02@0@@Z"
	.globl	"??$_To_address@PEBV?$array@H$02@std@@@std@@YA?A?<auto>@@AEBQEBV?$array@H$02@0@@Z" # -- Begin function ??$_To_address@PEBV?$array@H$02@std@@@std@@YA?A?<auto>@@AEBQEBV?$array@H$02@0@@Z
	.p2align	4, 0x90
"??$_To_address@PEBV?$array@H$02@std@@@std@@YA?A?<auto>@@AEBQEBV?$array@H$02@0@@Z": # @"??$_To_address@PEBV?$array@H$02@std@@@std@@YA?A?<auto>@@AEBQEBV?$array@H$02@0@@Z"
.seh_proc "??$_To_address@PEBV?$array@H$02@std@@@std@@YA?A?<auto>@@AEBQEBV?$array@H$02@0@@Z"
# %bb.0:
	sub	rsp, 40
	.seh_stackalloc 40
	.seh_endprologue
	mov	qword ptr [rsp + 32], rcx
	mov	rax, qword ptr [rsp + 32]
	mov	rcx, qword ptr [rax]
	call	"??$to_address@$$CBV?$array@H$02@std@@@std@@YAPEBV?$array@H$02@0@QEBV10@@Z"
	nop
	add	rsp, 40
	ret
	.seh_endproc
                                        # -- End function
	.def	"??$_To_address@PEAV?$array@H$02@std@@@std@@YA?A?<auto>@@AEBQEAV?$array@H$02@0@@Z";
	.scl	2;
	.type	32;
	.endef
	.section	.text,"xr",discard,"??$_To_address@PEAV?$array@H$02@std@@@std@@YA?A?<auto>@@AEBQEAV?$array@H$02@0@@Z"
	.globl	"??$_To_address@PEAV?$array@H$02@std@@@std@@YA?A?<auto>@@AEBQEAV?$array@H$02@0@@Z" # -- Begin function ??$_To_address@PEAV?$array@H$02@std@@@std@@YA?A?<auto>@@AEBQEAV?$array@H$02@0@@Z
	.p2align	4, 0x90
"??$_To_address@PEAV?$array@H$02@std@@@std@@YA?A?<auto>@@AEBQEAV?$array@H$02@0@@Z": # @"??$_To_address@PEAV?$array@H$02@std@@@std@@YA?A?<auto>@@AEBQEAV?$array@H$02@0@@Z"
.seh_proc "??$_To_address@PEAV?$array@H$02@std@@@std@@YA?A?<auto>@@AEBQEAV?$array@H$02@0@@Z"
# %bb.0:
	sub	rsp, 40
	.seh_stackalloc 40
	.seh_endprologue
	mov	qword ptr [rsp + 32], rcx
	mov	rax, qword ptr [rsp + 32]
	mov	rcx, qword ptr [rax]
	call	"??$to_address@V?$array@H$02@std@@@std@@YAPEAV?$array@H$02@0@QEAV10@@Z"
	nop
	add	rsp, 40
	ret
	.seh_endproc
                                        # -- End function
	.def	"??$to_address@V?$array@H$02@std@@@std@@YAPEAV?$array@H$02@0@QEAV10@@Z";
	.scl	2;
	.type	32;
	.endef
	.section	.text,"xr",discard,"??$to_address@V?$array@H$02@std@@@std@@YAPEAV?$array@H$02@0@QEAV10@@Z"
	.globl	"??$to_address@V?$array@H$02@std@@@std@@YAPEAV?$array@H$02@0@QEAV10@@Z" # -- Begin function ??$to_address@V?$array@H$02@std@@@std@@YAPEAV?$array@H$02@0@QEAV10@@Z
	.p2align	4, 0x90
"??$to_address@V?$array@H$02@std@@@std@@YAPEAV?$array@H$02@0@QEAV10@@Z": # @"??$to_address@V?$array@H$02@std@@@std@@YAPEAV?$array@H$02@0@QEAV10@@Z"
.seh_proc "??$to_address@V?$array@H$02@std@@@std@@YAPEAV?$array@H$02@0@QEAV10@@Z"
# %bb.0:
	push	rax
	.seh_stackalloc 8
	.seh_endprologue
	mov	qword ptr [rsp], rcx
	mov	rax, qword ptr [rsp]
	pop	rcx
	ret
	.seh_endproc
                                        # -- End function
	.def	"??$to_address@$$CBV?$array@H$02@std@@@std@@YAPEBV?$array@H$02@0@QEBV10@@Z";
	.scl	2;
	.type	32;
	.endef
	.section	.text,"xr",discard,"??$to_address@$$CBV?$array@H$02@std@@@std@@YAPEBV?$array@H$02@0@QEBV10@@Z"
	.globl	"??$to_address@$$CBV?$array@H$02@std@@@std@@YAPEBV?$array@H$02@0@QEBV10@@Z" # -- Begin function ??$to_address@$$CBV?$array@H$02@std@@@std@@YAPEBV?$array@H$02@0@QEBV10@@Z
	.p2align	4, 0x90
"??$to_address@$$CBV?$array@H$02@std@@@std@@YAPEBV?$array@H$02@0@QEBV10@@Z": # @"??$to_address@$$CBV?$array@H$02@std@@@std@@YAPEBV?$array@H$02@0@QEBV10@@Z"
.seh_proc "??$to_address@$$CBV?$array@H$02@std@@@std@@YAPEBV?$array@H$02@0@QEBV10@@Z"
# %bb.0:
	push	rax
	.seh_stackalloc 8
	.seh_endprologue
	mov	qword ptr [rsp], rcx
	mov	rax, qword ptr [rsp]
	pop	rcx
	ret
	.seh_endproc
                                        # -- End function
	.def	"?_Tidy@?$vector@V?$array@H$02@std@@V?$allocator@V?$array@H$02@std@@@2@@std@@AEAAXXZ";
	.scl	2;
	.type	32;
	.endef
	.section	.text,"xr",discard,"?_Tidy@?$vector@V?$array@H$02@std@@V?$allocator@V?$array@H$02@std@@@2@@std@@AEAAXXZ"
	.globl	"?_Tidy@?$vector@V?$array@H$02@std@@V?$allocator@V?$array@H$02@std@@@2@@std@@AEAAXXZ" # -- Begin function ?_Tidy@?$vector@V?$array@H$02@std@@V?$allocator@V?$array@H$02@std@@@2@@std@@AEAAXXZ
	.p2align	4, 0x90
"?_Tidy@?$vector@V?$array@H$02@std@@V?$allocator@V?$array@H$02@std@@@2@@std@@AEAAXXZ": # @"?_Tidy@?$vector@V?$array@H$02@std@@V?$allocator@V?$array@H$02@std@@@2@@std@@AEAAXXZ"
.seh_proc "?_Tidy@?$vector@V?$array@H$02@std@@V?$allocator@V?$array@H$02@std@@@2@@std@@AEAAXXZ"
# %bb.0:
	sub	rsp, 88
	.seh_stackalloc 88
	.seh_endprologue
	mov	qword ptr [rsp + 80], rcx
	mov	rcx, qword ptr [rsp + 80]
	mov	qword ptr [rsp + 32], rcx       # 8-byte Spill
	call	"?_Getal@?$vector@V?$array@H$02@std@@V?$allocator@V?$array@H$02@std@@@2@@std@@AEAAAEAV?$allocator@V?$array@H$02@std@@@2@XZ"
	mov	rcx, rax
	mov	rax, qword ptr [rsp + 32]       # 8-byte Reload
	mov	qword ptr [rsp + 72], rcx
	mov	qword ptr [rsp + 64], rax
	mov	rax, qword ptr [rsp + 64]
	mov	qword ptr [rsp + 56], rax
	mov	rax, qword ptr [rsp + 64]
	add	rax, 8
	mov	qword ptr [rsp + 48], rax
	mov	rax, qword ptr [rsp + 64]
	add	rax, 16
	mov	qword ptr [rsp + 40], rax
	mov	rcx, qword ptr [rsp + 64]
	call	"?_Orphan_all@_Container_base0@std@@QEAAXXZ"
	mov	rax, qword ptr [rsp + 56]
	cmp	qword ptr [rax], 0
	je	.LBB77_2
# %bb.1:
	mov	r8, qword ptr [rsp + 72]
	mov	rax, qword ptr [rsp + 48]
	mov	rdx, qword ptr [rax]
	mov	rax, qword ptr [rsp + 56]
	mov	rcx, qword ptr [rax]
	call	"??$_Destroy_range@V?$allocator@V?$array@H$02@std@@@std@@@std@@YAXPEAV?$array@H$02@0@QEAV10@AEAV?$allocator@V?$array@H$02@std@@@0@@Z"
	mov	rcx, qword ptr [rsp + 72]
	mov	rax, qword ptr [rsp + 40]
	mov	rax, qword ptr [rax]
	mov	rdx, qword ptr [rsp + 56]
	mov	rdx, qword ptr [rdx]
	sub	rax, rdx
	mov	r8d, 12
	cqo
	idiv	r8
	mov	r8, rax
	mov	rax, qword ptr [rsp + 56]
	mov	rdx, qword ptr [rax]
	call	"?deallocate@?$allocator@V?$array@H$02@std@@@std@@QEAAXQEAV?$array@H$02@2@_K@Z"
	mov	rax, qword ptr [rsp + 56]
	mov	qword ptr [rax], 0
	mov	rax, qword ptr [rsp + 48]
	mov	qword ptr [rax], 0
	mov	rax, qword ptr [rsp + 40]
	mov	qword ptr [rax], 0
.LBB77_2:
	add	rsp, 88
	ret
	.seh_endproc
                                        # -- End function
	.def	"??$_Destroy_range@V?$allocator@V?$array@H$02@std@@@std@@@std@@YAXPEAV?$array@H$02@0@QEAV10@AEAV?$allocator@V?$array@H$02@std@@@0@@Z";
	.scl	2;
	.type	32;
	.endef
	.section	.text,"xr",discard,"??$_Destroy_range@V?$allocator@V?$array@H$02@std@@@std@@@std@@YAXPEAV?$array@H$02@0@QEAV10@AEAV?$allocator@V?$array@H$02@std@@@0@@Z"
	.globl	"??$_Destroy_range@V?$allocator@V?$array@H$02@std@@@std@@@std@@YAXPEAV?$array@H$02@0@QEAV10@AEAV?$allocator@V?$array@H$02@std@@@0@@Z" # -- Begin function ??$_Destroy_range@V?$allocator@V?$array@H$02@std@@@std@@@std@@YAXPEAV?$array@H$02@0@QEAV10@AEAV?$allocator@V?$array@H$02@std@@@0@@Z
	.p2align	4, 0x90
"??$_Destroy_range@V?$allocator@V?$array@H$02@std@@@std@@@std@@YAXPEAV?$array@H$02@0@QEAV10@AEAV?$allocator@V?$array@H$02@std@@@0@@Z": # @"??$_Destroy_range@V?$allocator@V?$array@H$02@std@@@std@@@std@@YAXPEAV?$array@H$02@0@QEAV10@AEAV?$allocator@V?$array@H$02@std@@@0@@Z"
.seh_proc "??$_Destroy_range@V?$allocator@V?$array@H$02@std@@@std@@@std@@YAXPEAV?$array@H$02@0@QEAV10@AEAV?$allocator@V?$array@H$02@std@@@0@@Z"
# %bb.0:
	sub	rsp, 24
	.seh_stackalloc 24
	.seh_endprologue
	mov	qword ptr [rsp + 16], r8
	mov	qword ptr [rsp + 8], rdx
	mov	qword ptr [rsp], rcx
	add	rsp, 24
	ret
	.seh_endproc
                                        # -- End function
	.def	"?deallocate@?$allocator@V?$array@H$02@std@@@std@@QEAAXQEAV?$array@H$02@2@_K@Z";
	.scl	2;
	.type	32;
	.endef
	.section	.text,"xr",discard,"?deallocate@?$allocator@V?$array@H$02@std@@@std@@QEAAXQEAV?$array@H$02@2@_K@Z"
	.globl	"?deallocate@?$allocator@V?$array@H$02@std@@@std@@QEAAXQEAV?$array@H$02@2@_K@Z" # -- Begin function ?deallocate@?$allocator@V?$array@H$02@std@@@std@@QEAAXQEAV?$array@H$02@2@_K@Z
	.p2align	4, 0x90
"?deallocate@?$allocator@V?$array@H$02@std@@@std@@QEAAXQEAV?$array@H$02@2@_K@Z": # @"?deallocate@?$allocator@V?$array@H$02@std@@@std@@QEAAXQEAV?$array@H$02@2@_K@Z"
.seh_proc "?deallocate@?$allocator@V?$array@H$02@std@@@std@@QEAAXQEAV?$array@H$02@2@_K@Z"
# %bb.0:
	sub	rsp, 56
	.seh_stackalloc 56
	.seh_endprologue
	mov	qword ptr [rsp + 48], r8
	mov	qword ptr [rsp + 40], rdx
	mov	qword ptr [rsp + 32], rcx
	imul	rdx, qword ptr [rsp + 48], 12
	mov	rcx, qword ptr [rsp + 40]
	call	"??$_Deallocate@$0BA@$0A@@std@@YAXPEAX_K@Z"
	nop
	add	rsp, 56
	ret
	.seh_endproc
                                        # -- End function
	.def	"??$_Adl_verify_range@V?$_Vector_const_iterator@V?$_Vector_val@U?$_Simple_types@V?$array@H$02@std@@@std@@@std@@@std@@V12@@std@@YAXAEBV?$_Vector_const_iterator@V?$_Vector_val@U?$_Simple_types@V?$array@H$02@std@@@std@@@std@@@0@0@Z";
	.scl	2;
	.type	32;
	.endef
	.section	.text,"xr",discard,"??$_Adl_verify_range@V?$_Vector_const_iterator@V?$_Vector_val@U?$_Simple_types@V?$array@H$02@std@@@std@@@std@@@std@@V12@@std@@YAXAEBV?$_Vector_const_iterator@V?$_Vector_val@U?$_Simple_types@V?$array@H$02@std@@@std@@@std@@@0@0@Z"
	.globl	"??$_Adl_verify_range@V?$_Vector_const_iterator@V?$_Vector_val@U?$_Simple_types@V?$array@H$02@std@@@std@@@std@@@std@@V12@@std@@YAXAEBV?$_Vector_const_iterator@V?$_Vector_val@U?$_Simple_types@V?$array@H$02@std@@@std@@@std@@@0@0@Z" # -- Begin function ??$_Adl_verify_range@V?$_Vector_const_iterator@V?$_Vector_val@U?$_Simple_types@V?$array@H$02@std@@@std@@@std@@@std@@V12@@std@@YAXAEBV?$_Vector_const_iterator@V?$_Vector_val@U?$_Simple_types@V?$array@H$02@std@@@std@@@std@@@0@0@Z
	.p2align	4, 0x90
"??$_Adl_verify_range@V?$_Vector_const_iterator@V?$_Vector_val@U?$_Simple_types@V?$array@H$02@std@@@std@@@std@@@std@@V12@@std@@YAXAEBV?$_Vector_const_iterator@V?$_Vector_val@U?$_Simple_types@V?$array@H$02@std@@@std@@@std@@@0@0@Z": # @"??$_Adl_verify_range@V?$_Vector_const_iterator@V?$_Vector_val@U?$_Simple_types@V?$array@H$02@std@@@std@@@std@@@std@@V12@@std@@YAXAEBV?$_Vector_const_iterator@V?$_Vector_val@U?$_Simple_types@V?$array@H$02@std@@@std@@@std@@@0@0@Z"
.seh_proc "??$_Adl_verify_range@V?$_Vector_const_iterator@V?$_Vector_val@U?$_Simple_types@V?$array@H$02@std@@@std@@@std@@@std@@V12@@std@@YAXAEBV?$_Vector_const_iterator@V?$_Vector_val@U?$_Simple_types@V?$array@H$02@std@@@std@@@std@@@0@0@Z"
# %bb.0:
	sub	rsp, 16
	.seh_stackalloc 16
	.seh_endprologue
	mov	qword ptr [rsp + 8], rdx
	mov	qword ptr [rsp], rcx
	add	rsp, 16
	ret
	.seh_endproc
                                        # -- End function
	.def	"??$_Get_unwrapped@AEAV?$_Vector_const_iterator@V?$_Vector_val@U?$_Simple_types@V?$array@H$02@std@@@std@@@std@@@std@@@std@@YA?A?<decltype-auto>@@AEAV?$_Vector_const_iterator@V?$_Vector_val@U?$_Simple_types@V?$array@H$02@std@@@std@@@std@@@0@@Z";
	.scl	2;
	.type	32;
	.endef
	.section	.text,"xr",discard,"??$_Get_unwrapped@AEAV?$_Vector_const_iterator@V?$_Vector_val@U?$_Simple_types@V?$array@H$02@std@@@std@@@std@@@std@@@std@@YA?A?<decltype-auto>@@AEAV?$_Vector_const_iterator@V?$_Vector_val@U?$_Simple_types@V?$array@H$02@std@@@std@@@std@@@0@@Z"
	.globl	"??$_Get_unwrapped@AEAV?$_Vector_const_iterator@V?$_Vector_val@U?$_Simple_types@V?$array@H$02@std@@@std@@@std@@@std@@@std@@YA?A?<decltype-auto>@@AEAV?$_Vector_const_iterator@V?$_Vector_val@U?$_Simple_types@V?$array@H$02@std@@@std@@@std@@@0@@Z" # -- Begin function ??$_Get_unwrapped@AEAV?$_Vector_const_iterator@V?$_Vector_val@U?$_Simple_types@V?$array@H$02@std@@@std@@@std@@@std@@@std@@YA?A?<decltype-auto>@@AEAV?$_Vector_const_iterator@V?$_Vector_val@U?$_Simple_types@V?$array@H$02@std@@@std@@@std@@@0@@Z
	.p2align	4, 0x90
"??$_Get_unwrapped@AEAV?$_Vector_const_iterator@V?$_Vector_val@U?$_Simple_types@V?$array@H$02@std@@@std@@@std@@@std@@@std@@YA?A?<decltype-auto>@@AEAV?$_Vector_const_iterator@V?$_Vector_val@U?$_Simple_types@V?$array@H$02@std@@@std@@@std@@@0@@Z": # @"??$_Get_unwrapped@AEAV?$_Vector_const_iterator@V?$_Vector_val@U?$_Simple_types@V?$array@H$02@std@@@std@@@std@@@std@@@std@@YA?A?<decltype-auto>@@AEAV?$_Vector_const_iterator@V?$_Vector_val@U?$_Simple_types@V?$array@H$02@std@@@std@@@std@@@0@@Z"
.seh_proc "??$_Get_unwrapped@AEAV?$_Vector_const_iterator@V?$_Vector_val@U?$_Simple_types@V?$array@H$02@std@@@std@@@std@@@std@@@std@@YA?A?<decltype-auto>@@AEAV?$_Vector_const_iterator@V?$_Vector_val@U?$_Simple_types@V?$array@H$02@std@@@std@@@std@@@0@@Z"
# %bb.0:
	sub	rsp, 40
	.seh_stackalloc 40
	.seh_endprologue
	mov	qword ptr [rsp + 32], rcx
	mov	rcx, qword ptr [rsp + 32]
	call	"?_Unwrapped@?$_Vector_const_iterator@V?$_Vector_val@U?$_Simple_types@V?$array@H$02@std@@@std@@@std@@@std@@QEBAPEBV?$array@H$02@2@XZ"
	nop
	add	rsp, 40
	ret
	.seh_endproc
                                        # -- End function
	.def	"??$?RV?$array@H$02@std@@@<lambda_0>@?0??main@@9@QEBA?A?<auto>@@AEBV?$array@H$02@std@@@Z";
	.scl	3;
	.type	32;
	.endef
	.text
	.p2align	4, 0x90                         # -- Begin function ??$?RV?$array@H$02@std@@@<lambda_0>@?0??main@@9@QEBA?A?<auto>@@AEBV?$array@H$02@std@@@Z
"??$?RV?$array@H$02@std@@@<lambda_0>@?0??main@@9@QEBA?A?<auto>@@AEBV?$array@H$02@std@@@Z": # @"??$?RV?$array@H$02@std@@@<lambda_0>@?0??main@@9@QEBA?A?<auto>@@AEBV?$array@H$02@std@@@Z"
.Lfunc_begin6:
.seh_proc "??$?RV?$array@H$02@std@@@<lambda_0>@?0??main@@9@QEBA?A?<auto>@@AEBV?$array@H$02@std@@@Z"
	.seh_handler __CxxFrameHandler3, @unwind, @except
# %bb.0:
	push	rbp
	.seh_pushreg rbp
	sub	rsp, 176
	.seh_stackalloc 176
	lea	rbp, [rsp + 128]
	.seh_setframe rbp, 128
	.seh_endprologue
	mov	qword ptr [rbp + 40], -2
	mov	qword ptr [rbp + 32], rdx
	mov	qword ptr [rbp + 24], rcx
	mov	rax, qword ptr [rbp + 24]
	mov	qword ptr [rbp - 96], rax       # 8-byte Spill
	mov	rax, qword ptr [rbp + 32]
	mov	qword ptr [rbp + 16], rax
	mov	rcx, qword ptr [rbp + 16]
	call	"??$get@$0A@H$02@std@@YAAEBHAEBV?$array@H$02@0@@Z"
	mov	qword ptr [rbp + 8], rax
	mov	rcx, qword ptr [rbp + 16]
	call	"??$get@$00H$02@std@@YAAEBHAEBV?$array@H$02@0@@Z"
	mov	qword ptr [rbp], rax
	mov	rcx, qword ptr [rbp + 16]
	call	"??$get@$01H$02@std@@YAAEBHAEBV?$array@H$02@0@@Z"
	mov	qword ptr [rbp - 8], rax
	mov	rax, qword ptr [rbp - 8]
	mov	r8d, dword ptr [rax]
	mov	rax, qword ptr [rbp]
	mov	edx, dword ptr [rax]
	mov	rax, qword ptr [rbp + 8]
	mov	ecx, dword ptr [rax]
	call	"?calculation@@YA?A?<auto>@@HHH@Z"
	mov	cl, al
	mov	rax, qword ptr [rbp - 96]       # 8-byte Reload
	mov	byte ptr [rbp - 9], cl
	mov	r8b, byte ptr [rbp - 9]
	lea	rdx, [rip + "??_C@_0P@JFEPPKKE@?P?$LP?Q?$IA?P?$LO?P?$LJ?P?$LE?P?$LF?P?$LN?$AA@"]
	lea	rcx, [rip + "??_C@_0BE@DBNABBMH@?P?$LN?P?$LF?5?P?$LP?Q?$IA?P?$LO?P?$LJ?P?$LE?P?$LF?P?$LN?$AA@"]
	test	r8b, 1
	cmovne	rcx, rdx
	mov	qword ptr [rbp - 56], rcx
	mov	rcx, qword ptr [rax]
	mov	eax, dword ptr [rcx]
	mov	edx, eax
	inc	edx
	mov	dword ptr [rcx], edx
	mov	dword ptr [rbp - 60], eax
	lea	rax, [rip + "??_C@_0BD@DAGEHJBG@?P?$KC?P?$LF?Q?$IB?Q?$IC?5?$CD?$HL?$HN?5?$HL?$HN?5?6?6?$AA@"]
	mov	qword ptr [rbp - 80], rax
	mov	qword ptr [rbp - 72], 18
	lea	rcx, [rbp - 48]
	mov	qword ptr [rbp - 88], rcx       # 8-byte Spill
	lea	rdx, [rbp - 80]
	lea	r8, [rbp - 60]
	lea	r9, [rbp - 56]
	call	"??$format@HPEBD@std@@YA?AV?$basic_string@DU?$char_traits@D@std@@V?$allocator@D@2@@0@U?$basic_format_string@DHPEBD@0@$$QEAH$$QEAPEBD@Z"
	mov	rdx, qword ptr [rbp - 88]       # 8-byte Reload
.Ltmp14:
	lea	rcx, [rip + "?cout@std@@3V?$basic_ostream@DU?$char_traits@D@std@@@1@A"]
	call	"??$?6DU?$char_traits@D@std@@V?$allocator@D@1@@std@@YAAEAV?$basic_ostream@DU?$char_traits@D@std@@@0@AEAV10@AEBV?$basic_string@DU?$char_traits@D@std@@V?$allocator@D@2@@0@@Z"
.Ltmp15:
	jmp	.LBB82_1
.LBB82_1:
	lea	rcx, [rbp - 48]
	call	"??1?$basic_string@DU?$char_traits@D@std@@V?$allocator@D@2@@std@@QEAA@XZ"
	nop
	add	rsp, 176
	pop	rbp
	ret
	.seh_handlerdata
	.long	("$cppxdata$??$?RV?$array@H$02@std@@@<lambda_0>@?0??main@@9@QEBA?A?<auto>@@AEBV?$array@H$02@std@@@Z")@IMGREL
	.text
	.seh_endproc
	.def	"?dtor$2@?0???$?RV?$array@H$02@std@@@<lambda_0>@?0??main@@9@QEBA?A?<auto>@@AEBV?$array@H$02@std@@@Z@4HA";
	.scl	3;
	.type	32;
	.endef
	.p2align	4, 0x90
"?dtor$2@?0???$?RV?$array@H$02@std@@@<lambda_0>@?0??main@@9@QEBA?A?<auto>@@AEBV?$array@H$02@std@@@Z@4HA":
.seh_proc "?dtor$2@?0???$?RV?$array@H$02@std@@@<lambda_0>@?0??main@@9@QEBA?A?<auto>@@AEBV?$array@H$02@std@@@Z@4HA"
.LBB82_2:
	mov	qword ptr [rsp + 16], rdx
	push	rbp
	.seh_pushreg rbp
	sub	rsp, 32
	.seh_stackalloc 32
	lea	rbp, [rdx + 128]
	.seh_endprologue
	lea	rcx, [rbp - 48]
	call	"??1?$basic_string@DU?$char_traits@D@std@@V?$allocator@D@2@@std@@QEAA@XZ"
	nop
	add	rsp, 32
	pop	rbp
	ret                                     # CLEANUPRET
.Lfunc_end6:
	.seh_handlerdata
	.text
	.seh_endproc
	.section	.xdata,"dr"
	.p2align	2
"$cppxdata$??$?RV?$array@H$02@std@@@<lambda_0>@?0??main@@9@QEBA?A?<auto>@@AEBV?$array@H$02@std@@@Z":
	.long	429065506                       # MagicNumber
	.long	1                               # MaxState
	.long	("$stateUnwindMap$??$?RV?$array@H$02@std@@@<lambda_0>@?0??main@@9@QEBA?A?<auto>@@AEBV?$array@H$02@std@@@Z")@IMGREL # UnwindMap
	.long	0                               # NumTryBlocks
	.long	0                               # TryBlockMap
	.long	3                               # IPMapEntries
	.long	("$ip2state$??$?RV?$array@H$02@std@@@<lambda_0>@?0??main@@9@QEBA?A?<auto>@@AEBV?$array@H$02@std@@@Z")@IMGREL # IPToStateXData
	.long	168                             # UnwindHelp
	.long	0                               # ESTypeList
	.long	1                               # EHFlags
"$stateUnwindMap$??$?RV?$array@H$02@std@@@<lambda_0>@?0??main@@9@QEBA?A?<auto>@@AEBV?$array@H$02@std@@@Z":
	.long	-1                              # ToState
	.long	"?dtor$2@?0???$?RV?$array@H$02@std@@@<lambda_0>@?0??main@@9@QEBA?A?<auto>@@AEBV?$array@H$02@std@@@Z@4HA"@IMGREL # Action
"$ip2state$??$?RV?$array@H$02@std@@@<lambda_0>@?0??main@@9@QEBA?A?<auto>@@AEBV?$array@H$02@std@@@Z":
	.long	.Lfunc_begin6@IMGREL            # IP
	.long	-1                              # ToState
	.long	.Ltmp14@IMGREL+1                # IP
	.long	0                               # ToState
	.long	.Ltmp15@IMGREL+1                # IP
	.long	-1                              # ToState
	.text
                                        # -- End function
	.def	"?_Unwrapped@?$_Vector_const_iterator@V?$_Vector_val@U?$_Simple_types@V?$array@H$02@std@@@std@@@std@@@std@@QEBAPEBV?$array@H$02@2@XZ";
	.scl	2;
	.type	32;
	.endef
	.section	.text,"xr",discard,"?_Unwrapped@?$_Vector_const_iterator@V?$_Vector_val@U?$_Simple_types@V?$array@H$02@std@@@std@@@std@@@std@@QEBAPEBV?$array@H$02@2@XZ"
	.globl	"?_Unwrapped@?$_Vector_const_iterator@V?$_Vector_val@U?$_Simple_types@V?$array@H$02@std@@@std@@@std@@@std@@QEBAPEBV?$array@H$02@2@XZ" # -- Begin function ?_Unwrapped@?$_Vector_const_iterator@V?$_Vector_val@U?$_Simple_types@V?$array@H$02@std@@@std@@@std@@@std@@QEBAPEBV?$array@H$02@2@XZ
	.p2align	4, 0x90
"?_Unwrapped@?$_Vector_const_iterator@V?$_Vector_val@U?$_Simple_types@V?$array@H$02@std@@@std@@@std@@@std@@QEBAPEBV?$array@H$02@2@XZ": # @"?_Unwrapped@?$_Vector_const_iterator@V?$_Vector_val@U?$_Simple_types@V?$array@H$02@std@@@std@@@std@@@std@@QEBAPEBV?$array@H$02@2@XZ"
.seh_proc "?_Unwrapped@?$_Vector_const_iterator@V?$_Vector_val@U?$_Simple_types@V?$array@H$02@std@@@std@@@std@@@std@@QEBAPEBV?$array@H$02@2@XZ"
# %bb.0:
	sub	rsp, 40
	.seh_stackalloc 40
	.seh_endprologue
	mov	qword ptr [rsp + 32], rcx
	mov	rax, qword ptr [rsp + 32]
	mov	rcx, qword ptr [rax]
	call	"??$_Unfancy@V?$array@H$02@std@@@std@@YAPEAV?$array@H$02@0@PEAV10@@Z"
	nop
	add	rsp, 40
	ret
	.seh_endproc
                                        # -- End function
	.def	"??$get@$0A@H$02@std@@YAAEBHAEBV?$array@H$02@0@@Z";
	.scl	2;
	.type	32;
	.endef
	.section	.text,"xr",discard,"??$get@$0A@H$02@std@@YAAEBHAEBV?$array@H$02@0@@Z"
	.globl	"??$get@$0A@H$02@std@@YAAEBHAEBV?$array@H$02@0@@Z" # -- Begin function ??$get@$0A@H$02@std@@YAAEBHAEBV?$array@H$02@0@@Z
	.p2align	4, 0x90
"??$get@$0A@H$02@std@@YAAEBHAEBV?$array@H$02@0@@Z": # @"??$get@$0A@H$02@std@@YAAEBHAEBV?$array@H$02@0@@Z"
.seh_proc "??$get@$0A@H$02@std@@YAAEBHAEBV?$array@H$02@0@@Z"
# %bb.0:
	push	rax
	.seh_stackalloc 8
	.seh_endprologue
	mov	qword ptr [rsp], rcx
	mov	rax, qword ptr [rsp]
	pop	rcx
	ret
	.seh_endproc
                                        # -- End function
	.def	"??$get@$00H$02@std@@YAAEBHAEBV?$array@H$02@0@@Z";
	.scl	2;
	.type	32;
	.endef
	.section	.text,"xr",discard,"??$get@$00H$02@std@@YAAEBHAEBV?$array@H$02@0@@Z"
	.globl	"??$get@$00H$02@std@@YAAEBHAEBV?$array@H$02@0@@Z" # -- Begin function ??$get@$00H$02@std@@YAAEBHAEBV?$array@H$02@0@@Z
	.p2align	4, 0x90
"??$get@$00H$02@std@@YAAEBHAEBV?$array@H$02@0@@Z": # @"??$get@$00H$02@std@@YAAEBHAEBV?$array@H$02@0@@Z"
.seh_proc "??$get@$00H$02@std@@YAAEBHAEBV?$array@H$02@0@@Z"
# %bb.0:
	push	rax
	.seh_stackalloc 8
	.seh_endprologue
	mov	qword ptr [rsp], rcx
	mov	rax, qword ptr [rsp]
	add	rax, 4
	pop	rcx
	ret
	.seh_endproc
                                        # -- End function
	.def	"??$get@$01H$02@std@@YAAEBHAEBV?$array@H$02@0@@Z";
	.scl	2;
	.type	32;
	.endef
	.section	.text,"xr",discard,"??$get@$01H$02@std@@YAAEBHAEBV?$array@H$02@0@@Z"
	.globl	"??$get@$01H$02@std@@YAAEBHAEBV?$array@H$02@0@@Z" # -- Begin function ??$get@$01H$02@std@@YAAEBHAEBV?$array@H$02@0@@Z
	.p2align	4, 0x90
"??$get@$01H$02@std@@YAAEBHAEBV?$array@H$02@0@@Z": # @"??$get@$01H$02@std@@YAAEBHAEBV?$array@H$02@0@@Z"
.seh_proc "??$get@$01H$02@std@@YAAEBHAEBV?$array@H$02@0@@Z"
# %bb.0:
	push	rax
	.seh_stackalloc 8
	.seh_endprologue
	mov	qword ptr [rsp], rcx
	mov	rax, qword ptr [rsp]
	add	rax, 8
	pop	rcx
	ret
	.seh_endproc
                                        # -- End function
	.def	"??$format@HPEBD@std@@YA?AV?$basic_string@DU?$char_traits@D@std@@V?$allocator@D@2@@0@U?$basic_format_string@DHPEBD@0@$$QEAH$$QEAPEBD@Z";
	.scl	2;
	.type	32;
	.endef
	.section	.text,"xr",discard,"??$format@HPEBD@std@@YA?AV?$basic_string@DU?$char_traits@D@std@@V?$allocator@D@2@@0@U?$basic_format_string@DHPEBD@0@$$QEAH$$QEAPEBD@Z"
	.globl	"??$format@HPEBD@std@@YA?AV?$basic_string@DU?$char_traits@D@std@@V?$allocator@D@2@@0@U?$basic_format_string@DHPEBD@0@$$QEAH$$QEAPEBD@Z" # -- Begin function ??$format@HPEBD@std@@YA?AV?$basic_string@DU?$char_traits@D@std@@V?$allocator@D@2@@0@U?$basic_format_string@DHPEBD@0@$$QEAH$$QEAPEBD@Z
	.p2align	4, 0x90
"??$format@HPEBD@std@@YA?AV?$basic_string@DU?$char_traits@D@std@@V?$allocator@D@2@@0@U?$basic_format_string@DHPEBD@0@$$QEAH$$QEAPEBD@Z": # @"??$format@HPEBD@std@@YA?AV?$basic_string@DU?$char_traits@D@std@@V?$allocator@D@2@@0@U?$basic_format_string@DHPEBD@0@$$QEAH$$QEAPEBD@Z"
.seh_proc "??$format@HPEBD@std@@YA?AV?$basic_string@DU?$char_traits@D@std@@V?$allocator@D@2@@0@U?$basic_format_string@DHPEBD@0@$$QEAH$$QEAPEBD@Z"
# %bb.0:
	sub	rsp, 152
	.seh_stackalloc 152
	.seh_endprologue
	mov	qword ptr [rsp + 40], rdx       # 8-byte Spill
	mov	qword ptr [rsp + 48], rcx       # 8-byte Spill
	mov	rax, rcx
	mov	qword ptr [rsp + 56], rax       # 8-byte Spill
	mov	qword ptr [rsp + 144], rcx
	mov	qword ptr [rsp + 136], r9
	mov	qword ptr [rsp + 128], r8
	mov	r8, qword ptr [rsp + 136]
	mov	rdx, qword ptr [rsp + 128]
	lea	rcx, [rsp + 80]
	call	"??$make_format_args@V?$basic_format_context@V?$back_insert_iterator@V?$_Fmt_buffer@D@std@@@std@@D@std@@AEAHAEAPEBD@std@@YA?A?<auto>@@AEAHAEAPEBD@Z"
	lea	rcx, [rsp + 112]
	lea	rdx, [rsp + 80]
	call	"??$?0AEAHAEAPEBD@?$basic_format_args@V?$basic_format_context@V?$back_insert_iterator@V?$_Fmt_buffer@D@std@@@std@@D@std@@@std@@QEAA@AEBV?$_Format_arg_store@V?$basic_format_context@V?$back_insert_iterator@V?$_Fmt_buffer@D@std@@@std@@D@std@@AEAHAEAPEBD@1@@Z"
	mov	rcx, qword ptr [rsp + 40]       # 8-byte Reload
	lea	rdx, [rsp + 64]
	call	"?get@?$basic_format_string@DHPEBD@std@@QEBA?AV?$basic_string_view@DU?$char_traits@D@std@@@2@XZ"
	mov	rcx, qword ptr [rsp + 48]       # 8-byte Reload
	lea	rdx, [rsp + 64]
	lea	r8, [rsp + 112]
	call	"??$vformat@$0A@@std@@YA?AV?$basic_string@DU?$char_traits@D@std@@V?$allocator@D@2@@0@V?$basic_string_view@DU?$char_traits@D@std@@@0@V?$basic_format_args@V?$basic_format_context@V?$back_insert_iterator@V?$_Fmt_buffer@D@std@@@std@@D@std@@@0@@Z"
	mov	rax, qword ptr [rsp + 56]       # 8-byte Reload
	add	rsp, 152
	ret
	.seh_endproc
                                        # -- End function
	.def	"??$vformat@$0A@@std@@YA?AV?$basic_string@DU?$char_traits@D@std@@V?$allocator@D@2@@0@V?$basic_string_view@DU?$char_traits@D@std@@@0@V?$basic_format_args@V?$basic_format_context@V?$back_insert_iterator@V?$_Fmt_buffer@D@std@@@std@@D@std@@@0@@Z";
	.scl	2;
	.type	32;
	.endef
	.section	.text,"xr",discard,"??$vformat@$0A@@std@@YA?AV?$basic_string@DU?$char_traits@D@std@@V?$allocator@D@2@@0@V?$basic_string_view@DU?$char_traits@D@std@@@0@V?$basic_format_args@V?$basic_format_context@V?$back_insert_iterator@V?$_Fmt_buffer@D@std@@@std@@D@std@@@0@@Z"
	.globl	"??$vformat@$0A@@std@@YA?AV?$basic_string@DU?$char_traits@D@std@@V?$allocator@D@2@@0@V?$basic_string_view@DU?$char_traits@D@std@@@0@V?$basic_format_args@V?$basic_format_context@V?$back_insert_iterator@V?$_Fmt_buffer@D@std@@@std@@D@std@@@0@@Z" # -- Begin function ??$vformat@$0A@@std@@YA?AV?$basic_string@DU?$char_traits@D@std@@V?$allocator@D@2@@0@V?$basic_string_view@DU?$char_traits@D@std@@@0@V?$basic_format_args@V?$basic_format_context@V?$back_insert_iterator@V?$_Fmt_buffer@D@std@@@std@@D@std@@@0@@Z
	.p2align	4, 0x90
"??$vformat@$0A@@std@@YA?AV?$basic_string@DU?$char_traits@D@std@@V?$allocator@D@2@@0@V?$basic_string_view@DU?$char_traits@D@std@@@0@V?$basic_format_args@V?$basic_format_context@V?$back_insert_iterator@V?$_Fmt_buffer@D@std@@@std@@D@std@@@0@@Z": # @"??$vformat@$0A@@std@@YA?AV?$basic_string@DU?$char_traits@D@std@@V?$allocator@D@2@@0@V?$basic_string_view@DU?$char_traits@D@std@@@0@V?$basic_format_args@V?$basic_format_context@V?$back_insert_iterator@V?$_Fmt_buffer@D@std@@@std@@D@std@@@0@@Z"
.Lfunc_begin7:
.seh_proc "??$vformat@$0A@@std@@YA?AV?$basic_string@DU?$char_traits@D@std@@V?$allocator@D@2@@0@V?$basic_string_view@DU?$char_traits@D@std@@@0@V?$basic_format_args@V?$basic_format_context@V?$back_insert_iterator@V?$_Fmt_buffer@D@std@@@std@@D@std@@@0@@Z"
	.seh_handler __CxxFrameHandler3, @unwind, @except
# %bb.0:
	push	rbp
	.seh_pushreg rbp
	sub	rsp, 160
	.seh_stackalloc 160
	lea	rbp, [rsp + 128]
	.seh_setframe rbp, 128
	.seh_endprologue
	mov	qword ptr [rbp + 24], -2
	mov	qword ptr [rbp - 72], r8        # 8-byte Spill
	mov	qword ptr [rbp - 80], rdx       # 8-byte Spill
	mov	qword ptr [rbp - 56], rcx       # 8-byte Spill
	mov	rax, rcx
	mov	qword ptr [rbp - 88], rax       # 8-byte Spill
	mov	qword ptr [rbp + 16], rcx
	mov	byte ptr [rbp + 15], 0
	call	"??0?$basic_string@DU?$char_traits@D@std@@V?$allocator@D@2@@std@@QEAA@XZ"
	mov	rcx, qword ptr [rbp - 80]       # 8-byte Reload
	call	"?size@?$basic_string_view@DU?$char_traits@D@std@@@std@@QEBA_KXZ"
	mov	rcx, qword ptr [rbp - 72]       # 8-byte Reload
	mov	qword ptr [rbp - 64], rax       # 8-byte Spill
	call	"?_Estimate_required_capacity@?$basic_format_args@V?$basic_format_context@V?$back_insert_iterator@V?$_Fmt_buffer@D@std@@@std@@D@std@@@std@@QEBA_KXZ"
	mov	rdx, qword ptr [rbp - 64]       # 8-byte Reload
	mov	rcx, qword ptr [rbp - 56]       # 8-byte Reload
	add	rdx, rax
.Ltmp16:
	call	"?reserve@?$basic_string@DU?$char_traits@D@std@@V?$allocator@D@2@@std@@QEAAX_K@Z"
.Ltmp17:
	jmp	.LBB88_1
.LBB88_1:
	mov	rdx, qword ptr [rbp - 56]       # 8-byte Reload
	mov	rax, qword ptr [rbp - 80]       # 8-byte Reload
	mov	rcx, qword ptr [rbp - 72]       # 8-byte Reload
	movups	xmm0, xmmword ptr [rcx]
	movaps	xmmword ptr [rbp - 16], xmm0
	movups	xmm0, xmmword ptr [rax]
	movaps	xmmword ptr [rbp - 32], xmm0
	lea	rcx, [rbp - 40]
	call	"??0?$back_insert_iterator@V?$basic_string@DU?$char_traits@D@std@@V?$allocator@D@2@@std@@@std@@QEAA@AEAV?$basic_string@DU?$char_traits@D@std@@V?$allocator@D@2@@1@@Z"
	mov	rdx, qword ptr [rbp - 40]
.Ltmp18:
	lea	rcx, [rbp - 48]
	lea	r8, [rbp - 32]
	lea	r9, [rbp - 16]
	call	"??$vformat_to@V?$back_insert_iterator@V?$basic_string@DU?$char_traits@D@std@@V?$allocator@D@2@@std@@@std@@@std@@YA?AV?$back_insert_iterator@V?$basic_string@DU?$char_traits@D@std@@V?$allocator@D@2@@std@@@0@V10@V?$basic_string_view@DU?$char_traits@D@std@@@0@V?$basic_format_args@V?$basic_format_context@V?$back_insert_iterator@V?$_Fmt_buffer@D@std@@@std@@D@std@@@0@@Z"
.Ltmp19:
	jmp	.LBB88_2
.LBB88_2:
	mov	byte ptr [rbp + 15], 1
	test	byte ptr [rbp + 15], 1
	jne	.LBB88_4
# %bb.3:
	mov	rcx, qword ptr [rbp - 56]       # 8-byte Reload
	call	"??1?$basic_string@DU?$char_traits@D@std@@V?$allocator@D@2@@std@@QEAA@XZ"
.LBB88_4:
	mov	rax, qword ptr [rbp - 88]       # 8-byte Reload
	add	rsp, 160
	pop	rbp
	ret
	.seh_handlerdata
	.long	("$cppxdata$??$vformat@$0A@@std@@YA?AV?$basic_string@DU?$char_traits@D@std@@V?$allocator@D@2@@0@V?$basic_string_view@DU?$char_traits@D@std@@@0@V?$basic_format_args@V?$basic_format_context@V?$back_insert_iterator@V?$_Fmt_buffer@D@std@@@std@@D@std@@@0@@Z")@IMGREL
	.section	.text,"xr",discard,"??$vformat@$0A@@std@@YA?AV?$basic_string@DU?$char_traits@D@std@@V?$allocator@D@2@@0@V?$basic_string_view@DU?$char_traits@D@std@@@0@V?$basic_format_args@V?$basic_format_context@V?$back_insert_iterator@V?$_Fmt_buffer@D@std@@@std@@D@std@@@0@@Z"
	.seh_endproc
	.def	"?dtor$5@?0???$vformat@$0A@@std@@YA?AV?$basic_string@DU?$char_traits@D@std@@V?$allocator@D@2@@0@V?$basic_string_view@DU?$char_traits@D@std@@@0@V?$basic_format_args@V?$basic_format_context@V?$back_insert_iterator@V?$_Fmt_buffer@D@std@@@std@@D@std@@@0@@Z@4HA";
	.scl	3;
	.type	32;
	.endef
	.p2align	4, 0x90
"?dtor$5@?0???$vformat@$0A@@std@@YA?AV?$basic_string@DU?$char_traits@D@std@@V?$allocator@D@2@@0@V?$basic_string_view@DU?$char_traits@D@std@@@0@V?$basic_format_args@V?$basic_format_context@V?$back_insert_iterator@V?$_Fmt_buffer@D@std@@@std@@D@std@@@0@@Z@4HA":
.seh_proc "?dtor$5@?0???$vformat@$0A@@std@@YA?AV?$basic_string@DU?$char_traits@D@std@@V?$allocator@D@2@@0@V?$basic_string_view@DU?$char_traits@D@std@@@0@V?$basic_format_args@V?$basic_format_context@V?$back_insert_iterator@V?$_Fmt_buffer@D@std@@@std@@D@std@@@0@@Z@4HA"
.LBB88_5:
	mov	qword ptr [rsp + 16], rdx
	push	rbp
	.seh_pushreg rbp
	sub	rsp, 32
	.seh_stackalloc 32
	lea	rbp, [rdx + 128]
	.seh_endprologue
	mov	rcx, qword ptr [rbp - 56]       # 8-byte Reload
	call	"??1?$basic_string@DU?$char_traits@D@std@@V?$allocator@D@2@@std@@QEAA@XZ"
	nop
	add	rsp, 32
	pop	rbp
	ret                                     # CLEANUPRET
.Lfunc_end7:
	.seh_handlerdata
	.section	.text,"xr",discard,"??$vformat@$0A@@std@@YA?AV?$basic_string@DU?$char_traits@D@std@@V?$allocator@D@2@@0@V?$basic_string_view@DU?$char_traits@D@std@@@0@V?$basic_format_args@V?$basic_format_context@V?$back_insert_iterator@V?$_Fmt_buffer@D@std@@@std@@D@std@@@0@@Z"
	.seh_endproc
	.section	.xdata,"dr",associative,"??$vformat@$0A@@std@@YA?AV?$basic_string@DU?$char_traits@D@std@@V?$allocator@D@2@@0@V?$basic_string_view@DU?$char_traits@D@std@@@0@V?$basic_format_args@V?$basic_format_context@V?$back_insert_iterator@V?$_Fmt_buffer@D@std@@@std@@D@std@@@0@@Z"
	.p2align	2
"$cppxdata$??$vformat@$0A@@std@@YA?AV?$basic_string@DU?$char_traits@D@std@@V?$allocator@D@2@@0@V?$basic_string_view@DU?$char_traits@D@std@@@0@V?$basic_format_args@V?$basic_format_context@V?$back_insert_iterator@V?$_Fmt_buffer@D@std@@@std@@D@std@@@0@@Z":
	.long	429065506                       # MagicNumber
	.long	1                               # MaxState
	.long	("$stateUnwindMap$??$vformat@$0A@@std@@YA?AV?$basic_string@DU?$char_traits@D@std@@V?$allocator@D@2@@0@V?$basic_string_view@DU?$char_traits@D@std@@@0@V?$basic_format_args@V?$basic_format_context@V?$back_insert_iterator@V?$_Fmt_buffer@D@std@@@std@@D@std@@@0@@Z")@IMGREL # UnwindMap
	.long	0                               # NumTryBlocks
	.long	0                               # TryBlockMap
	.long	3                               # IPMapEntries
	.long	("$ip2state$??$vformat@$0A@@std@@YA?AV?$basic_string@DU?$char_traits@D@std@@V?$allocator@D@2@@0@V?$basic_string_view@DU?$char_traits@D@std@@@0@V?$basic_format_args@V?$basic_format_context@V?$back_insert_iterator@V?$_Fmt_buffer@D@std@@@std@@D@std@@@0@@Z")@IMGREL # IPToStateXData
	.long	152                             # UnwindHelp
	.long	0                               # ESTypeList
	.long	1                               # EHFlags
"$stateUnwindMap$??$vformat@$0A@@std@@YA?AV?$basic_string@DU?$char_traits@D@std@@V?$allocator@D@2@@0@V?$basic_string_view@DU?$char_traits@D@std@@@0@V?$basic_format_args@V?$basic_format_context@V?$back_insert_iterator@V?$_Fmt_buffer@D@std@@@std@@D@std@@@0@@Z":
	.long	-1                              # ToState
	.long	"?dtor$5@?0???$vformat@$0A@@std@@YA?AV?$basic_string@DU?$char_traits@D@std@@V?$allocator@D@2@@0@V?$basic_string_view@DU?$char_traits@D@std@@@0@V?$basic_format_args@V?$basic_format_context@V?$back_insert_iterator@V?$_Fmt_buffer@D@std@@@std@@D@std@@@0@@Z@4HA"@IMGREL # Action
"$ip2state$??$vformat@$0A@@std@@YA?AV?$basic_string@DU?$char_traits@D@std@@V?$allocator@D@2@@0@V?$basic_string_view@DU?$char_traits@D@std@@@0@V?$basic_format_args@V?$basic_format_context@V?$back_insert_iterator@V?$_Fmt_buffer@D@std@@@std@@D@std@@@0@@Z":
	.long	.Lfunc_begin7@IMGREL            # IP
	.long	-1                              # ToState
	.long	.Ltmp16@IMGREL+1                # IP
	.long	0                               # ToState
	.long	.Ltmp19@IMGREL+1                # IP
	.long	-1                              # ToState
	.section	.text,"xr",discard,"??$vformat@$0A@@std@@YA?AV?$basic_string@DU?$char_traits@D@std@@V?$allocator@D@2@@0@V?$basic_string_view@DU?$char_traits@D@std@@@0@V?$basic_format_args@V?$basic_format_context@V?$back_insert_iterator@V?$_Fmt_buffer@D@std@@@std@@D@std@@@0@@Z"
                                        # -- End function
	.def	"??$make_format_args@V?$basic_format_context@V?$back_insert_iterator@V?$_Fmt_buffer@D@std@@@std@@D@std@@AEAHAEAPEBD@std@@YA?A?<auto>@@AEAHAEAPEBD@Z";
	.scl	2;
	.type	32;
	.endef
	.section	.text,"xr",discard,"??$make_format_args@V?$basic_format_context@V?$back_insert_iterator@V?$_Fmt_buffer@D@std@@@std@@D@std@@AEAHAEAPEBD@std@@YA?A?<auto>@@AEAHAEAPEBD@Z"
	.globl	"??$make_format_args@V?$basic_format_context@V?$back_insert_iterator@V?$_Fmt_buffer@D@std@@@std@@D@std@@AEAHAEAPEBD@std@@YA?A?<auto>@@AEAHAEAPEBD@Z" # -- Begin function ??$make_format_args@V?$basic_format_context@V?$back_insert_iterator@V?$_Fmt_buffer@D@std@@@std@@D@std@@AEAHAEAPEBD@std@@YA?A?<auto>@@AEAHAEAPEBD@Z
	.p2align	4, 0x90
"??$make_format_args@V?$basic_format_context@V?$back_insert_iterator@V?$_Fmt_buffer@D@std@@@std@@D@std@@AEAHAEAPEBD@std@@YA?A?<auto>@@AEAHAEAPEBD@Z": # @"??$make_format_args@V?$basic_format_context@V?$back_insert_iterator@V?$_Fmt_buffer@D@std@@@std@@D@std@@AEAHAEAPEBD@std@@YA?A?<auto>@@AEAHAEAPEBD@Z"
.seh_proc "??$make_format_args@V?$basic_format_context@V?$back_insert_iterator@V?$_Fmt_buffer@D@std@@@std@@D@std@@AEAHAEAPEBD@std@@YA?A?<auto>@@AEAHAEAPEBD@Z"
# %bb.0:
	sub	rsp, 72
	.seh_stackalloc 72
	.seh_endprologue
	mov	rax, rcx
	mov	qword ptr [rsp + 40], rax       # 8-byte Spill
	mov	qword ptr [rsp + 64], rcx
	mov	qword ptr [rsp + 56], r8
	mov	qword ptr [rsp + 48], rdx
	mov	rdx, qword ptr [rsp + 48]
	mov	r8, qword ptr [rsp + 56]
	call	"??0?$_Format_arg_store@V?$basic_format_context@V?$back_insert_iterator@V?$_Fmt_buffer@D@std@@@std@@D@std@@AEAHAEAPEBD@std@@QEAA@AEAHAEAPEBD@Z"
                                        # kill: def $rcx killed $rax
	mov	rax, qword ptr [rsp + 40]       # 8-byte Reload
	add	rsp, 72
	ret
	.seh_endproc
                                        # -- End function
	.def	"??$?0AEAHAEAPEBD@?$basic_format_args@V?$basic_format_context@V?$back_insert_iterator@V?$_Fmt_buffer@D@std@@@std@@D@std@@@std@@QEAA@AEBV?$_Format_arg_store@V?$basic_format_context@V?$back_insert_iterator@V?$_Fmt_buffer@D@std@@@std@@D@std@@AEAHAEAPEBD@1@@Z";
	.scl	2;
	.type	32;
	.endef
	.section	.text,"xr",discard,"??$?0AEAHAEAPEBD@?$basic_format_args@V?$basic_format_context@V?$back_insert_iterator@V?$_Fmt_buffer@D@std@@@std@@D@std@@@std@@QEAA@AEBV?$_Format_arg_store@V?$basic_format_context@V?$back_insert_iterator@V?$_Fmt_buffer@D@std@@@std@@D@std@@AEAHAEAPEBD@1@@Z"
	.globl	"??$?0AEAHAEAPEBD@?$basic_format_args@V?$basic_format_context@V?$back_insert_iterator@V?$_Fmt_buffer@D@std@@@std@@D@std@@@std@@QEAA@AEBV?$_Format_arg_store@V?$basic_format_context@V?$back_insert_iterator@V?$_Fmt_buffer@D@std@@@std@@D@std@@AEAHAEAPEBD@1@@Z" # -- Begin function ??$?0AEAHAEAPEBD@?$basic_format_args@V?$basic_format_context@V?$back_insert_iterator@V?$_Fmt_buffer@D@std@@@std@@D@std@@@std@@QEAA@AEBV?$_Format_arg_store@V?$basic_format_context@V?$back_insert_iterator@V?$_Fmt_buffer@D@std@@@std@@D@std@@AEAHAEAPEBD@1@@Z
	.p2align	4, 0x90
"??$?0AEAHAEAPEBD@?$basic_format_args@V?$basic_format_context@V?$back_insert_iterator@V?$_Fmt_buffer@D@std@@@std@@D@std@@@std@@QEAA@AEBV?$_Format_arg_store@V?$basic_format_context@V?$back_insert_iterator@V?$_Fmt_buffer@D@std@@@std@@D@std@@AEAHAEAPEBD@1@@Z": # @"??$?0AEAHAEAPEBD@?$basic_format_args@V?$basic_format_context@V?$back_insert_iterator@V?$_Fmt_buffer@D@std@@@std@@D@std@@@std@@QEAA@AEBV?$_Format_arg_store@V?$basic_format_context@V?$back_insert_iterator@V?$_Fmt_buffer@D@std@@@std@@D@std@@AEAHAEAPEBD@1@@Z"
.seh_proc "??$?0AEAHAEAPEBD@?$basic_format_args@V?$basic_format_context@V?$back_insert_iterator@V?$_Fmt_buffer@D@std@@@std@@D@std@@@std@@QEAA@AEBV?$_Format_arg_store@V?$basic_format_context@V?$back_insert_iterator@V?$_Fmt_buffer@D@std@@@std@@D@std@@AEAHAEAPEBD@1@@Z"
# %bb.0:
	sub	rsp, 16
	.seh_stackalloc 16
	.seh_endprologue
	mov	qword ptr [rsp + 8], rdx
	mov	qword ptr [rsp], rcx
	mov	rax, qword ptr [rsp]
	mov	qword ptr [rax], 2
	mov	rcx, qword ptr [rsp + 8]
	mov	qword ptr [rax + 8], rcx
	add	rsp, 16
	ret
	.seh_endproc
                                        # -- End function
	.def	"?get@?$basic_format_string@DHPEBD@std@@QEBA?AV?$basic_string_view@DU?$char_traits@D@std@@@2@XZ";
	.scl	2;
	.type	32;
	.endef
	.section	.text,"xr",discard,"?get@?$basic_format_string@DHPEBD@std@@QEBA?AV?$basic_string_view@DU?$char_traits@D@std@@@2@XZ"
	.globl	"?get@?$basic_format_string@DHPEBD@std@@QEBA?AV?$basic_string_view@DU?$char_traits@D@std@@@2@XZ" # -- Begin function ?get@?$basic_format_string@DHPEBD@std@@QEBA?AV?$basic_string_view@DU?$char_traits@D@std@@@2@XZ
	.p2align	4, 0x90
"?get@?$basic_format_string@DHPEBD@std@@QEBA?AV?$basic_string_view@DU?$char_traits@D@std@@@2@XZ": # @"?get@?$basic_format_string@DHPEBD@std@@QEBA?AV?$basic_string_view@DU?$char_traits@D@std@@@2@XZ"
.seh_proc "?get@?$basic_format_string@DHPEBD@std@@QEBA?AV?$basic_string_view@DU?$char_traits@D@std@@@2@XZ"
# %bb.0:
	sub	rsp, 16
	.seh_stackalloc 16
	.seh_endprologue
	mov	rax, rdx
	mov	qword ptr [rsp + 8], rdx
	mov	qword ptr [rsp], rcx
	mov	rcx, qword ptr [rsp]
	mov	r8, qword ptr [rcx]
	mov	qword ptr [rdx], r8
	mov	rcx, qword ptr [rcx + 8]
	mov	qword ptr [rdx + 8], rcx
	add	rsp, 16
	ret
	.seh_endproc
                                        # -- End function
	.def	"??0?$basic_string@DU?$char_traits@D@std@@V?$allocator@D@2@@std@@QEAA@XZ";
	.scl	2;
	.type	32;
	.endef
	.section	.text,"xr",discard,"??0?$basic_string@DU?$char_traits@D@std@@V?$allocator@D@2@@std@@QEAA@XZ"
	.globl	"??0?$basic_string@DU?$char_traits@D@std@@V?$allocator@D@2@@std@@QEAA@XZ" # -- Begin function ??0?$basic_string@DU?$char_traits@D@std@@V?$allocator@D@2@@std@@QEAA@XZ
	.p2align	4, 0x90
"??0?$basic_string@DU?$char_traits@D@std@@V?$allocator@D@2@@std@@QEAA@XZ": # @"??0?$basic_string@DU?$char_traits@D@std@@V?$allocator@D@2@@std@@QEAA@XZ"
.seh_proc "??0?$basic_string@DU?$char_traits@D@std@@V?$allocator@D@2@@std@@QEAA@XZ"
# %bb.0:
	sub	rsp, 56
	.seh_stackalloc 56
	.seh_endprologue
	mov	qword ptr [rsp + 48], rcx
	mov	rcx, qword ptr [rsp + 48]
	mov	qword ptr [rsp + 32], rcx       # 8-byte Spill
	mov	dl, byte ptr [rsp + 40]
	call	"??$?0$$V@?$_Compressed_pair@V?$allocator@D@std@@V?$_String_val@U?$_Simple_types@D@std@@@2@$00@std@@QEAA@U_Zero_then_variadic_args_t@1@@Z"
	mov	rcx, qword ptr [rsp + 32]       # 8-byte Reload
	lea	rdx, [rip + "?_Fake_alloc@std@@3U_Fake_allocator@1@B"]
	call	"?_Alloc_proxy@_Container_base0@std@@QEAAXAEBU_Fake_allocator@2@@Z"
	mov	rcx, qword ptr [rsp + 32]       # 8-byte Reload
	call	"?_Tidy_init@?$basic_string@DU?$char_traits@D@std@@V?$allocator@D@2@@std@@AEAAXXZ"
	mov	rax, qword ptr [rsp + 32]       # 8-byte Reload
	add	rsp, 56
	ret
	.seh_endproc
                                        # -- End function
	.def	"?reserve@?$basic_string@DU?$char_traits@D@std@@V?$allocator@D@2@@std@@QEAAX_K@Z";
	.scl	2;
	.type	32;
	.endef
	.section	.text,"xr",discard,"?reserve@?$basic_string@DU?$char_traits@D@std@@V?$allocator@D@2@@std@@QEAAX_K@Z"
	.globl	"?reserve@?$basic_string@DU?$char_traits@D@std@@V?$allocator@D@2@@std@@QEAAX_K@Z" # -- Begin function ?reserve@?$basic_string@DU?$char_traits@D@std@@V?$allocator@D@2@@std@@QEAAX_K@Z
	.p2align	4, 0x90
"?reserve@?$basic_string@DU?$char_traits@D@std@@V?$allocator@D@2@@std@@QEAAX_K@Z": # @"?reserve@?$basic_string@DU?$char_traits@D@std@@V?$allocator@D@2@@std@@QEAAX_K@Z"
.seh_proc "?reserve@?$basic_string@DU?$char_traits@D@std@@V?$allocator@D@2@@std@@QEAAX_K@Z"
# %bb.0:
	sub	rsp, 72
	.seh_stackalloc 72
	.seh_endprologue
	mov	qword ptr [rsp + 64], rdx
	mov	qword ptr [rsp + 56], rcx
	mov	rax, qword ptr [rsp + 56]
	mov	qword ptr [rsp + 32], rax       # 8-byte Spill
	mov	rax, qword ptr [rax + 24]
	cmp	rax, qword ptr [rsp + 64]
	jb	.LBB93_2
# %bb.1:
	jmp	.LBB93_3
.LBB93_2:
	mov	rcx, qword ptr [rsp + 32]       # 8-byte Reload
	mov	rax, qword ptr [rcx + 16]
	mov	qword ptr [rsp + 48], rax
	mov	rdx, qword ptr [rsp + 64]
	sub	rdx, qword ptr [rsp + 48]
	mov	r8b, byte ptr [rsp + 40]
	call	"??$_Reallocate_grow_by@V<lambda_1>@?0??reserve@?$basic_string@DU?$char_traits@D@std@@V?$allocator@D@2@@std@@QEAAX_K@Z@$$V@?$basic_string@DU?$char_traits@D@std@@V?$allocator@D@2@@std@@AEAAAEAV01@_KV<lambda_1>@?0??reserve@01@QEAAX0@Z@@Z"
                                        # kill: def $rcx killed $rax
	mov	rax, qword ptr [rsp + 32]       # 8-byte Reload
	mov	rcx, qword ptr [rsp + 48]
	mov	qword ptr [rax + 16], rcx
.LBB93_3:
	add	rsp, 72
	ret
	.seh_endproc
                                        # -- End function
	.def	"?size@?$basic_string_view@DU?$char_traits@D@std@@@std@@QEBA_KXZ";
	.scl	2;
	.type	32;
	.endef
	.section	.text,"xr",discard,"?size@?$basic_string_view@DU?$char_traits@D@std@@@std@@QEBA_KXZ"
	.globl	"?size@?$basic_string_view@DU?$char_traits@D@std@@@std@@QEBA_KXZ" # -- Begin function ?size@?$basic_string_view@DU?$char_traits@D@std@@@std@@QEBA_KXZ
	.p2align	4, 0x90
"?size@?$basic_string_view@DU?$char_traits@D@std@@@std@@QEBA_KXZ": # @"?size@?$basic_string_view@DU?$char_traits@D@std@@@std@@QEBA_KXZ"
.seh_proc "?size@?$basic_string_view@DU?$char_traits@D@std@@@std@@QEBA_KXZ"
# %bb.0:
	push	rax
	.seh_stackalloc 8
	.seh_endprologue
	mov	qword ptr [rsp], rcx
	mov	rax, qword ptr [rsp]
	mov	rax, qword ptr [rax + 8]
	pop	rcx
	ret
	.seh_endproc
                                        # -- End function
	.def	"?_Estimate_required_capacity@?$basic_format_args@V?$basic_format_context@V?$back_insert_iterator@V?$_Fmt_buffer@D@std@@@std@@D@std@@@std@@QEBA_KXZ";
	.scl	2;
	.type	32;
	.endef
	.section	.text,"xr",discard,"?_Estimate_required_capacity@?$basic_format_args@V?$basic_format_context@V?$back_insert_iterator@V?$_Fmt_buffer@D@std@@@std@@D@std@@@std@@QEBA_KXZ"
	.globl	"?_Estimate_required_capacity@?$basic_format_args@V?$basic_format_context@V?$back_insert_iterator@V?$_Fmt_buffer@D@std@@@std@@D@std@@@std@@QEBA_KXZ" # -- Begin function ?_Estimate_required_capacity@?$basic_format_args@V?$basic_format_context@V?$back_insert_iterator@V?$_Fmt_buffer@D@std@@@std@@D@std@@@std@@QEBA_KXZ
	.p2align	4, 0x90
"?_Estimate_required_capacity@?$basic_format_args@V?$basic_format_context@V?$back_insert_iterator@V?$_Fmt_buffer@D@std@@@std@@D@std@@@std@@QEBA_KXZ": # @"?_Estimate_required_capacity@?$basic_format_args@V?$basic_format_context@V?$back_insert_iterator@V?$_Fmt_buffer@D@std@@@std@@D@std@@@std@@QEBA_KXZ"
.Lfunc_begin8:
.seh_proc "?_Estimate_required_capacity@?$basic_format_args@V?$basic_format_context@V?$back_insert_iterator@V?$_Fmt_buffer@D@std@@@std@@D@std@@@std@@QEBA_KXZ"
	.seh_handler __CxxFrameHandler3, @unwind, @except
# %bb.0:
	push	rbp
	.seh_pushreg rbp
	sub	rsp, 112
	.seh_stackalloc 112
	lea	rbp, [rsp + 112]
	.seh_setframe rbp, 112
	.seh_endprologue
	mov	qword ptr [rbp - 8], -2
	mov	qword ptr [rbp - 16], rcx
	mov	rax, qword ptr [rbp - 16]
	mov	qword ptr [rbp - 72], rax       # 8-byte Spill
	mov	qword ptr [rbp - 24], 0
	lea	rax, [rbp - 24]
	mov	qword ptr [rbp - 32], rax
	mov	qword ptr [rbp - 40], 0
.LBB95_1:                               # =>This Inner Loop Header: Depth=1
	mov	rcx, qword ptr [rbp - 72]       # 8-byte Reload
	mov	rax, qword ptr [rbp - 40]
	cmp	rax, qword ptr [rcx]
	jae	.LBB95_4
# %bb.2:                                #   in Loop: Header=BB95_1 Depth=1
	mov	rcx, qword ptr [rbp - 72]       # 8-byte Reload
	mov	r8, qword ptr [rbp - 40]
	lea	rdx, [rbp - 64]
	mov	qword ptr [rbp - 80], rdx       # 8-byte Spill
	call	"?get@?$basic_format_args@V?$basic_format_context@V?$back_insert_iterator@V?$_Fmt_buffer@D@std@@@std@@D@std@@@std@@QEBA?AV?$basic_format_arg@V?$basic_format_context@V?$back_insert_iterator@V?$_Fmt_buffer@D@std@@@std@@D@std@@@2@_K@Z"
	mov	rdx, qword ptr [rbp - 80]       # 8-byte Reload
.Ltmp20:
	lea	rcx, [rbp - 32]
	call	"??$visit_format_arg@AEBV<lambda_1>@?0??_Estimate_required_capacity@?$basic_format_args@V?$basic_format_context@V?$back_insert_iterator@V?$_Fmt_buffer@D@std@@@std@@D@std@@@std@@QEBA_KXZ@V?$basic_format_context@V?$back_insert_iterator@V?$_Fmt_buffer@D@std@@@std@@D@4@@std@@YA?A?<decltype-auto>@@AEBV<lambda_1>@?0??_Estimate_required_capacity@?$basic_format_args@V?$basic_format_context@V?$back_insert_iterator@V?$_Fmt_buffer@D@std@@@std@@D@std@@@0@QEBA_KXZ@V?$basic_format_arg@V?$basic_format_context@V?$back_insert_iterator@V?$_Fmt_buffer@D@std@@@std@@D@std@@@0@@Z"
.Ltmp21:
	jmp	.LBB95_3
.LBB95_3:                               #   in Loop: Header=BB95_1 Depth=1
	mov	rax, qword ptr [rbp - 40]
	add	rax, 1
	mov	qword ptr [rbp - 40], rax
	jmp	.LBB95_1
.LBB95_4:
	mov	rax, qword ptr [rbp - 24]
	add	rsp, 112
	pop	rbp
	ret
	.seh_handlerdata
	.long	("$cppxdata$?_Estimate_required_capacity@?$basic_format_args@V?$basic_format_context@V?$back_insert_iterator@V?$_Fmt_buffer@D@std@@@std@@D@std@@@std@@QEBA_KXZ")@IMGREL
	.section	.text,"xr",discard,"?_Estimate_required_capacity@?$basic_format_args@V?$basic_format_context@V?$back_insert_iterator@V?$_Fmt_buffer@D@std@@@std@@D@std@@@std@@QEBA_KXZ"
	.seh_endproc
	.def	"?dtor$5@?0??_Estimate_required_capacity@?$basic_format_args@V?$basic_format_context@V?$back_insert_iterator@V?$_Fmt_buffer@D@std@@@std@@D@std@@@std@@QEBA_KXZ@4HA";
	.scl	3;
	.type	32;
	.endef
	.p2align	4, 0x90
"?dtor$5@?0??_Estimate_required_capacity@?$basic_format_args@V?$basic_format_context@V?$back_insert_iterator@V?$_Fmt_buffer@D@std@@@std@@D@std@@@std@@QEBA_KXZ@4HA":
.seh_proc "?dtor$5@?0??_Estimate_required_capacity@?$basic_format_args@V?$basic_format_context@V?$back_insert_iterator@V?$_Fmt_buffer@D@std@@@std@@D@std@@@std@@QEBA_KXZ@4HA"
.LBB95_5:
	mov	qword ptr [rsp + 16], rdx
	push	rbp
	.seh_pushreg rbp
	sub	rsp, 32
	.seh_stackalloc 32
	lea	rbp, [rdx + 112]
	.seh_endprologue
	call	__std_terminate
	int3
.Lfunc_end8:
	.seh_handlerdata
	.section	.text,"xr",discard,"?_Estimate_required_capacity@?$basic_format_args@V?$basic_format_context@V?$back_insert_iterator@V?$_Fmt_buffer@D@std@@@std@@D@std@@@std@@QEBA_KXZ"
	.seh_endproc
	.section	.xdata,"dr",associative,"?_Estimate_required_capacity@?$basic_format_args@V?$basic_format_context@V?$back_insert_iterator@V?$_Fmt_buffer@D@std@@@std@@D@std@@@std@@QEBA_KXZ"
	.p2align	2
"$cppxdata$?_Estimate_required_capacity@?$basic_format_args@V?$basic_format_context@V?$back_insert_iterator@V?$_Fmt_buffer@D@std@@@std@@D@std@@@std@@QEBA_KXZ":
	.long	429065506                       # MagicNumber
	.long	1                               # MaxState
	.long	("$stateUnwindMap$?_Estimate_required_capacity@?$basic_format_args@V?$basic_format_context@V?$back_insert_iterator@V?$_Fmt_buffer@D@std@@@std@@D@std@@@std@@QEBA_KXZ")@IMGREL # UnwindMap
	.long	0                               # NumTryBlocks
	.long	0                               # TryBlockMap
	.long	3                               # IPMapEntries
	.long	("$ip2state$?_Estimate_required_capacity@?$basic_format_args@V?$basic_format_context@V?$back_insert_iterator@V?$_Fmt_buffer@D@std@@@std@@D@std@@@std@@QEBA_KXZ")@IMGREL # IPToStateXData
	.long	104                             # UnwindHelp
	.long	0                               # ESTypeList
	.long	1                               # EHFlags
"$stateUnwindMap$?_Estimate_required_capacity@?$basic_format_args@V?$basic_format_context@V?$back_insert_iterator@V?$_Fmt_buffer@D@std@@@std@@D@std@@@std@@QEBA_KXZ":
	.long	-1                              # ToState
	.long	"?dtor$5@?0??_Estimate_required_capacity@?$basic_format_args@V?$basic_format_context@V?$back_insert_iterator@V?$_Fmt_buffer@D@std@@@std@@D@std@@@std@@QEBA_KXZ@4HA"@IMGREL # Action
"$ip2state$?_Estimate_required_capacity@?$basic_format_args@V?$basic_format_context@V?$back_insert_iterator@V?$_Fmt_buffer@D@std@@@std@@D@std@@@std@@QEBA_KXZ":
	.long	.Lfunc_begin8@IMGREL            # IP
	.long	-1                              # ToState
	.long	.Ltmp20@IMGREL+1                # IP
	.long	0                               # ToState
	.long	.Ltmp21@IMGREL+1                # IP
	.long	-1                              # ToState
	.section	.text,"xr",discard,"?_Estimate_required_capacity@?$basic_format_args@V?$basic_format_context@V?$back_insert_iterator@V?$_Fmt_buffer@D@std@@@std@@D@std@@@std@@QEBA_KXZ"
                                        # -- End function
	.def	"??$vformat_to@V?$back_insert_iterator@V?$basic_string@DU?$char_traits@D@std@@V?$allocator@D@2@@std@@@std@@@std@@YA?AV?$back_insert_iterator@V?$basic_string@DU?$char_traits@D@std@@V?$allocator@D@2@@std@@@0@V10@V?$basic_string_view@DU?$char_traits@D@std@@@0@V?$basic_format_args@V?$basic_format_context@V?$back_insert_iterator@V?$_Fmt_buffer@D@std@@@std@@D@std@@@0@@Z";
	.scl	2;
	.type	32;
	.endef
	.section	.text,"xr",discard,"??$vformat_to@V?$back_insert_iterator@V?$basic_string@DU?$char_traits@D@std@@V?$allocator@D@2@@std@@@std@@@std@@YA?AV?$back_insert_iterator@V?$basic_string@DU?$char_traits@D@std@@V?$allocator@D@2@@std@@@0@V10@V?$basic_string_view@DU?$char_traits@D@std@@@0@V?$basic_format_args@V?$basic_format_context@V?$back_insert_iterator@V?$_Fmt_buffer@D@std@@@std@@D@std@@@0@@Z"
	.globl	"??$vformat_to@V?$back_insert_iterator@V?$basic_string@DU?$char_traits@D@std@@V?$allocator@D@2@@std@@@std@@@std@@YA?AV?$back_insert_iterator@V?$basic_string@DU?$char_traits@D@std@@V?$allocator@D@2@@std@@@0@V10@V?$basic_string_view@DU?$char_traits@D@std@@@0@V?$basic_format_args@V?$basic_format_context@V?$back_insert_iterator@V?$_Fmt_buffer@D@std@@@std@@D@std@@@0@@Z" # -- Begin function ??$vformat_to@V?$back_insert_iterator@V?$basic_string@DU?$char_traits@D@std@@V?$allocator@D@2@@std@@@std@@@std@@YA?AV?$back_insert_iterator@V?$basic_string@DU?$char_traits@D@std@@V?$allocator@D@2@@std@@@0@V10@V?$basic_string_view@DU?$char_traits@D@std@@@0@V?$basic_format_args@V?$basic_format_context@V?$back_insert_iterator@V?$_Fmt_buffer@D@std@@@std@@D@std@@@0@@Z
	.p2align	4, 0x90
"??$vformat_to@V?$back_insert_iterator@V?$basic_string@DU?$char_traits@D@std@@V?$allocator@D@2@@std@@@std@@@std@@YA?AV?$back_insert_iterator@V?$basic_string@DU?$char_traits@D@std@@V?$allocator@D@2@@std@@@0@V10@V?$basic_string_view@DU?$char_traits@D@std@@@0@V?$basic_format_args@V?$basic_format_context@V?$back_insert_iterator@V?$_Fmt_buffer@D@std@@@std@@D@std@@@0@@Z": # @"??$vformat_to@V?$back_insert_iterator@V?$basic_string@DU?$char_traits@D@std@@V?$allocator@D@2@@std@@@std@@@std@@YA?AV?$back_insert_iterator@V?$basic_string@DU?$char_traits@D@std@@V?$allocator@D@2@@std@@@0@V10@V?$basic_string_view@DU?$char_traits@D@std@@@0@V?$basic_format_args@V?$basic_format_context@V?$back_insert_iterator@V?$_Fmt_buffer@D@std@@@std@@D@std@@@0@@Z"
.Lfunc_begin9:
.seh_proc "??$vformat_to@V?$back_insert_iterator@V?$basic_string@DU?$char_traits@D@std@@V?$allocator@D@2@@std@@@std@@@std@@YA?AV?$back_insert_iterator@V?$basic_string@DU?$char_traits@D@std@@V?$allocator@D@2@@std@@@0@V10@V?$basic_string_view@DU?$char_traits@D@std@@@0@V?$basic_format_args@V?$basic_format_context@V?$back_insert_iterator@V?$_Fmt_buffer@D@std@@@std@@D@std@@@0@@Z"
	.seh_handler __CxxFrameHandler3, @unwind, @except
# %bb.0:
	push	rbp
	.seh_pushreg rbp
	sub	rsp, 544
	.seh_stackalloc 544
	lea	rbp, [rsp + 128]
	.seh_setframe rbp, 128
	.seh_endprologue
	mov	qword ptr [rbp + 408], -2
	mov	qword ptr [rbp - 72], r9        # 8-byte Spill
	mov	qword ptr [rbp - 64], r8        # 8-byte Spill
	mov	qword ptr [rbp - 88], rcx       # 8-byte Spill
	mov	rax, rcx
	mov	qword ptr [rbp - 80], rax       # 8-byte Spill
	mov	qword ptr [rbp + 400], rcx
	mov	qword ptr [rbp + 392], rdx
	mov	rax, qword ptr [rbp + 392]
	mov	qword ptr [rbp + 88], rax
	mov	rdx, qword ptr [rbp + 88]
	lea	rcx, [rbp + 96]
	mov	qword ptr [rbp - 56], rcx       # 8-byte Spill
	mov	r8d, 256
	call	"??0?$_Fmt_iterator_buffer@V?$back_insert_iterator@V?$basic_string@DU?$char_traits@D@std@@V?$allocator@D@2@@std@@@std@@DU_Fmt_buffer_traits@2@@std@@QEAA@V?$back_insert_iterator@V?$basic_string@DU?$char_traits@D@std@@V?$allocator@D@2@@std@@@1@_J@Z"
	mov	r9, qword ptr [rbp - 72]        # 8-byte Reload
	mov	r8, qword ptr [rbp - 64]        # 8-byte Reload
	mov	rdx, qword ptr [rbp - 56]       # 8-byte Reload
	movups	xmm0, xmmword ptr [r9]
	movaps	xmmword ptr [rbp], xmm0
	movups	xmm0, xmmword ptr [r8]
	movaps	xmmword ptr [rbp - 16], xmm0
	lea	rcx, [rbp - 24]
	call	"??0?$back_insert_iterator@V?$_Fmt_buffer@D@std@@@std@@QEAA@AEAV?$_Fmt_buffer@D@1@@Z"
	mov	rdx, qword ptr [rbp - 24]
.Ltmp22:
	lea	rcx, [rbp + 24]
	lea	r8, [rbp - 16]
	mov	r9, rbp
	call	"??0?$_Format_handler@D@std@@QEAA@V?$back_insert_iterator@V?$_Fmt_buffer@D@std@@@1@V?$basic_string_view@DU?$char_traits@D@std@@@1@V?$basic_format_args@V?$basic_format_context@V?$back_insert_iterator@V?$_Fmt_buffer@D@std@@@std@@D@std@@@1@@Z"
.Ltmp23:
	jmp	.LBB96_1
.LBB96_1:
	mov	rax, qword ptr [rbp - 64]       # 8-byte Reload
	movups	xmm0, xmmword ptr [rax]
	movaps	xmmword ptr [rbp - 48], xmm0
.Ltmp24:
	lea	rcx, [rbp - 48]
	lea	rdx, [rbp + 24]
	call	"??$_Parse_format_string@DAEAU?$_Format_handler@D@std@@@std@@YAXV?$basic_string_view@DU?$char_traits@D@std@@@0@AEAU?$_Format_handler@D@0@@Z"
.Ltmp25:
	jmp	.LBB96_2
.LBB96_2:
.Ltmp26:
	mov	rdx, qword ptr [rbp - 88]       # 8-byte Reload
	lea	rcx, [rbp + 96]
	call	"?_Out@?$_Fmt_iterator_buffer@V?$back_insert_iterator@V?$basic_string@DU?$char_traits@D@std@@V?$allocator@D@2@@std@@@std@@DU_Fmt_buffer_traits@2@@std@@QEAA?AV?$back_insert_iterator@V?$basic_string@DU?$char_traits@D@std@@V?$allocator@D@2@@std@@@2@XZ"
.Ltmp27:
	jmp	.LBB96_3
.LBB96_3:
	lea	rcx, [rbp + 96]
	call	"??1?$_Fmt_iterator_buffer@V?$back_insert_iterator@V?$basic_string@DU?$char_traits@D@std@@V?$allocator@D@2@@std@@@std@@DU_Fmt_buffer_traits@2@@std@@QEAA@XZ"
	mov	rax, qword ptr [rbp - 80]       # 8-byte Reload
	add	rsp, 544
	pop	rbp
	ret
	.seh_handlerdata
	.long	("$cppxdata$??$vformat_to@V?$back_insert_iterator@V?$basic_string@DU?$char_traits@D@std@@V?$allocator@D@2@@std@@@std@@@std@@YA?AV?$back_insert_iterator@V?$basic_string@DU?$char_traits@D@std@@V?$allocator@D@2@@std@@@0@V10@V?$basic_string_view@DU?$char_traits@D@std@@@0@V?$basic_format_args@V?$basic_format_context@V?$back_insert_iterator@V?$_Fmt_buffer@D@std@@@std@@D@std@@@0@@Z")@IMGREL
	.section	.text,"xr",discard,"??$vformat_to@V?$back_insert_iterator@V?$basic_string@DU?$char_traits@D@std@@V?$allocator@D@2@@std@@@std@@@std@@YA?AV?$back_insert_iterator@V?$basic_string@DU?$char_traits@D@std@@V?$allocator@D@2@@std@@@0@V10@V?$basic_string_view@DU?$char_traits@D@std@@@0@V?$basic_format_args@V?$basic_format_context@V?$back_insert_iterator@V?$_Fmt_buffer@D@std@@@std@@D@std@@@0@@Z"
	.seh_endproc
	.def	"?dtor$4@?0???$vformat_to@V?$back_insert_iterator@V?$basic_string@DU?$char_traits@D@std@@V?$allocator@D@2@@std@@@std@@@std@@YA?AV?$back_insert_iterator@V?$basic_string@DU?$char_traits@D@std@@V?$allocator@D@2@@std@@@0@V10@V?$basic_string_view@DU?$char_traits@D@std@@@0@V?$basic_format_args@V?$basic_format_context@V?$back_insert_iterator@V?$_Fmt_buffer@D@std@@@std@@D@std@@@0@@Z@4HA";
	.scl	3;
	.type	32;
	.endef
	.p2align	4, 0x90
"?dtor$4@?0???$vformat_to@V?$back_insert_iterator@V?$basic_string@DU?$char_traits@D@std@@V?$allocator@D@2@@std@@@std@@@std@@YA?AV?$back_insert_iterator@V?$basic_string@DU?$char_traits@D@std@@V?$allocator@D@2@@std@@@0@V10@V?$basic_string_view@DU?$char_traits@D@std@@@0@V?$basic_format_args@V?$basic_format_context@V?$back_insert_iterator@V?$_Fmt_buffer@D@std@@@std@@D@std@@@0@@Z@4HA":
.seh_proc "?dtor$4@?0???$vformat_to@V?$back_insert_iterator@V?$basic_string@DU?$char_traits@D@std@@V?$allocator@D@2@@std@@@std@@@std@@YA?AV?$back_insert_iterator@V?$basic_string@DU?$char_traits@D@std@@V?$allocator@D@2@@std@@@0@V10@V?$basic_string_view@DU?$char_traits@D@std@@@0@V?$basic_format_args@V?$basic_format_context@V?$back_insert_iterator@V?$_Fmt_buffer@D@std@@@std@@D@std@@@0@@Z@4HA"
.LBB96_4:
	mov	qword ptr [rsp + 16], rdx
	push	rbp
	.seh_pushreg rbp
	sub	rsp, 32
	.seh_stackalloc 32
	lea	rbp, [rdx + 128]
	.seh_endprologue
	lea	rcx, [rbp + 96]
	call	"??1?$_Fmt_iterator_buffer@V?$back_insert_iterator@V?$basic_string@DU?$char_traits@D@std@@V?$allocator@D@2@@std@@@std@@DU_Fmt_buffer_traits@2@@std@@QEAA@XZ"
	nop
	add	rsp, 32
	pop	rbp
	ret                                     # CLEANUPRET
.Lfunc_end9:
	.seh_handlerdata
	.section	.text,"xr",discard,"??$vformat_to@V?$back_insert_iterator@V?$basic_string@DU?$char_traits@D@std@@V?$allocator@D@2@@std@@@std@@@std@@YA?AV?$back_insert_iterator@V?$basic_string@DU?$char_traits@D@std@@V?$allocator@D@2@@std@@@0@V10@V?$basic_string_view@DU?$char_traits@D@std@@@0@V?$basic_format_args@V?$basic_format_context@V?$back_insert_iterator@V?$_Fmt_buffer@D@std@@@std@@D@std@@@0@@Z"
	.seh_endproc
	.section	.xdata,"dr",associative,"??$vformat_to@V?$back_insert_iterator@V?$basic_string@DU?$char_traits@D@std@@V?$allocator@D@2@@std@@@std@@@std@@YA?AV?$back_insert_iterator@V?$basic_string@DU?$char_traits@D@std@@V?$allocator@D@2@@std@@@0@V10@V?$basic_string_view@DU?$char_traits@D@std@@@0@V?$basic_format_args@V?$basic_format_context@V?$back_insert_iterator@V?$_Fmt_buffer@D@std@@@std@@D@std@@@0@@Z"
	.p2align	2
"$cppxdata$??$vformat_to@V?$back_insert_iterator@V?$basic_string@DU?$char_traits@D@std@@V?$allocator@D@2@@std@@@std@@@std@@YA?AV?$back_insert_iterator@V?$basic_string@DU?$char_traits@D@std@@V?$allocator@D@2@@std@@@0@V10@V?$basic_string_view@DU?$char_traits@D@std@@@0@V?$basic_format_args@V?$basic_format_context@V?$back_insert_iterator@V?$_Fmt_buffer@D@std@@@std@@D@std@@@0@@Z":
	.long	429065506                       # MagicNumber
	.long	1                               # MaxState
	.long	("$stateUnwindMap$??$vformat_to@V?$back_insert_iterator@V?$basic_string@DU?$char_traits@D@std@@V?$allocator@D@2@@std@@@std@@@std@@YA?AV?$back_insert_iterator@V?$basic_string@DU?$char_traits@D@std@@V?$allocator@D@2@@std@@@0@V10@V?$basic_string_view@DU?$char_traits@D@std@@@0@V?$basic_format_args@V?$basic_format_context@V?$back_insert_iterator@V?$_Fmt_buffer@D@std@@@std@@D@std@@@0@@Z")@IMGREL # UnwindMap
	.long	0                               # NumTryBlocks
	.long	0                               # TryBlockMap
	.long	3                               # IPMapEntries
	.long	("$ip2state$??$vformat_to@V?$back_insert_iterator@V?$basic_string@DU?$char_traits@D@std@@V?$allocator@D@2@@std@@@std@@@std@@YA?AV?$back_insert_iterator@V?$basic_string@DU?$char_traits@D@std@@V?$allocator@D@2@@std@@@0@V10@V?$basic_string_view@DU?$char_traits@D@std@@@0@V?$basic_format_args@V?$basic_format_context@V?$back_insert_iterator@V?$_Fmt_buffer@D@std@@@std@@D@std@@@0@@Z")@IMGREL # IPToStateXData
	.long	536                             # UnwindHelp
	.long	0                               # ESTypeList
	.long	1                               # EHFlags
"$stateUnwindMap$??$vformat_to@V?$back_insert_iterator@V?$basic_string@DU?$char_traits@D@std@@V?$allocator@D@2@@std@@@std@@@std@@YA?AV?$back_insert_iterator@V?$basic_string@DU?$char_traits@D@std@@V?$allocator@D@2@@std@@@0@V10@V?$basic_string_view@DU?$char_traits@D@std@@@0@V?$basic_format_args@V?$basic_format_context@V?$back_insert_iterator@V?$_Fmt_buffer@D@std@@@std@@D@std@@@0@@Z":
	.long	-1                              # ToState
	.long	"?dtor$4@?0???$vformat_to@V?$back_insert_iterator@V?$basic_string@DU?$char_traits@D@std@@V?$allocator@D@2@@std@@@std@@@std@@YA?AV?$back_insert_iterator@V?$basic_string@DU?$char_traits@D@std@@V?$allocator@D@2@@std@@@0@V10@V?$basic_string_view@DU?$char_traits@D@std@@@0@V?$basic_format_args@V?$basic_format_context@V?$back_insert_iterator@V?$_Fmt_buffer@D@std@@@std@@D@std@@@0@@Z@4HA"@IMGREL # Action
"$ip2state$??$vformat_to@V?$back_insert_iterator@V?$basic_string@DU?$char_traits@D@std@@V?$allocator@D@2@@std@@@std@@@std@@YA?AV?$back_insert_iterator@V?$basic_string@DU?$char_traits@D@std@@V?$allocator@D@2@@std@@@0@V10@V?$basic_string_view@DU?$char_traits@D@std@@@0@V?$basic_format_args@V?$basic_format_context@V?$back_insert_iterator@V?$_Fmt_buffer@D@std@@@std@@D@std@@@0@@Z":
	.long	.Lfunc_begin9@IMGREL            # IP
	.long	-1                              # ToState
	.long	.Ltmp22@IMGREL+1                # IP
	.long	0                               # ToState
	.long	.Ltmp27@IMGREL+1                # IP
	.long	-1                              # ToState
	.section	.text,"xr",discard,"??$vformat_to@V?$back_insert_iterator@V?$basic_string@DU?$char_traits@D@std@@V?$allocator@D@2@@std@@@std@@@std@@YA?AV?$back_insert_iterator@V?$basic_string@DU?$char_traits@D@std@@V?$allocator@D@2@@std@@@0@V10@V?$basic_string_view@DU?$char_traits@D@std@@@0@V?$basic_format_args@V?$basic_format_context@V?$back_insert_iterator@V?$_Fmt_buffer@D@std@@@std@@D@std@@@0@@Z"
                                        # -- End function
	.def	"??0?$back_insert_iterator@V?$basic_string@DU?$char_traits@D@std@@V?$allocator@D@2@@std@@@std@@QEAA@AEAV?$basic_string@DU?$char_traits@D@std@@V?$allocator@D@2@@1@@Z";
	.scl	2;
	.type	32;
	.endef
	.section	.text,"xr",discard,"??0?$back_insert_iterator@V?$basic_string@DU?$char_traits@D@std@@V?$allocator@D@2@@std@@@std@@QEAA@AEAV?$basic_string@DU?$char_traits@D@std@@V?$allocator@D@2@@1@@Z"
	.globl	"??0?$back_insert_iterator@V?$basic_string@DU?$char_traits@D@std@@V?$allocator@D@2@@std@@@std@@QEAA@AEAV?$basic_string@DU?$char_traits@D@std@@V?$allocator@D@2@@1@@Z" # -- Begin function ??0?$back_insert_iterator@V?$basic_string@DU?$char_traits@D@std@@V?$allocator@D@2@@std@@@std@@QEAA@AEAV?$basic_string@DU?$char_traits@D@std@@V?$allocator@D@2@@1@@Z
	.p2align	4, 0x90
"??0?$back_insert_iterator@V?$basic_string@DU?$char_traits@D@std@@V?$allocator@D@2@@std@@@std@@QEAA@AEAV?$basic_string@DU?$char_traits@D@std@@V?$allocator@D@2@@1@@Z": # @"??0?$back_insert_iterator@V?$basic_string@DU?$char_traits@D@std@@V?$allocator@D@2@@std@@@std@@QEAA@AEAV?$basic_string@DU?$char_traits@D@std@@V?$allocator@D@2@@1@@Z"
.seh_proc "??0?$back_insert_iterator@V?$basic_string@DU?$char_traits@D@std@@V?$allocator@D@2@@std@@@std@@QEAA@AEAV?$basic_string@DU?$char_traits@D@std@@V?$allocator@D@2@@1@@Z"
# %bb.0:
	sub	rsp, 16
	.seh_stackalloc 16
	.seh_endprologue
	mov	qword ptr [rsp + 8], rdx
	mov	qword ptr [rsp], rcx
	mov	rax, qword ptr [rsp]
	mov	rcx, qword ptr [rsp + 8]
	mov	qword ptr [rax], rcx
	add	rsp, 16
	ret
	.seh_endproc
                                        # -- End function
	.def	"??$?0$$V@?$_Compressed_pair@V?$allocator@D@std@@V?$_String_val@U?$_Simple_types@D@std@@@2@$00@std@@QEAA@U_Zero_then_variadic_args_t@1@@Z";
	.scl	2;
	.type	32;
	.endef
	.section	.text,"xr",discard,"??$?0$$V@?$_Compressed_pair@V?$allocator@D@std@@V?$_String_val@U?$_Simple_types@D@std@@@2@$00@std@@QEAA@U_Zero_then_variadic_args_t@1@@Z"
	.globl	"??$?0$$V@?$_Compressed_pair@V?$allocator@D@std@@V?$_String_val@U?$_Simple_types@D@std@@@2@$00@std@@QEAA@U_Zero_then_variadic_args_t@1@@Z" # -- Begin function ??$?0$$V@?$_Compressed_pair@V?$allocator@D@std@@V?$_String_val@U?$_Simple_types@D@std@@@2@$00@std@@QEAA@U_Zero_then_variadic_args_t@1@@Z
	.p2align	4, 0x90
"??$?0$$V@?$_Compressed_pair@V?$allocator@D@std@@V?$_String_val@U?$_Simple_types@D@std@@@2@$00@std@@QEAA@U_Zero_then_variadic_args_t@1@@Z": # @"??$?0$$V@?$_Compressed_pair@V?$allocator@D@std@@V?$_String_val@U?$_Simple_types@D@std@@@2@$00@std@@QEAA@U_Zero_then_variadic_args_t@1@@Z"
.seh_proc "??$?0$$V@?$_Compressed_pair@V?$allocator@D@std@@V?$_String_val@U?$_Simple_types@D@std@@@2@$00@std@@QEAA@U_Zero_then_variadic_args_t@1@@Z"
# %bb.0:
	sub	rsp, 56
	.seh_stackalloc 56
	.seh_endprologue
	mov	byte ptr [rsp + 48], dl
	mov	qword ptr [rsp + 40], rcx
	mov	rcx, qword ptr [rsp + 40]
	mov	qword ptr [rsp + 32], rcx       # 8-byte Spill
	call	"??0?$allocator@D@std@@QEAA@XZ"
	mov	rcx, qword ptr [rsp + 32]       # 8-byte Reload
	call	"??0?$_String_val@U?$_Simple_types@D@std@@@std@@QEAA@XZ"
                                        # kill: def $rcx killed $rax
	mov	rax, qword ptr [rsp + 32]       # 8-byte Reload
	add	rsp, 56
	ret
	.seh_endproc
                                        # -- End function
	.def	"?_Alloc_proxy@_Container_base0@std@@QEAAXAEBU_Fake_allocator@2@@Z";
	.scl	2;
	.type	32;
	.endef
	.section	.text,"xr",discard,"?_Alloc_proxy@_Container_base0@std@@QEAAXAEBU_Fake_allocator@2@@Z"
	.globl	"?_Alloc_proxy@_Container_base0@std@@QEAAXAEBU_Fake_allocator@2@@Z" # -- Begin function ?_Alloc_proxy@_Container_base0@std@@QEAAXAEBU_Fake_allocator@2@@Z
	.p2align	4, 0x90
"?_Alloc_proxy@_Container_base0@std@@QEAAXAEBU_Fake_allocator@2@@Z": # @"?_Alloc_proxy@_Container_base0@std@@QEAAXAEBU_Fake_allocator@2@@Z"
.seh_proc "?_Alloc_proxy@_Container_base0@std@@QEAAXAEBU_Fake_allocator@2@@Z"
# %bb.0:
	sub	rsp, 16
	.seh_stackalloc 16
	.seh_endprologue
	mov	qword ptr [rsp + 8], rdx
	mov	qword ptr [rsp], rcx
	add	rsp, 16
	ret
	.seh_endproc
                                        # -- End function
	.def	"?_Tidy_init@?$basic_string@DU?$char_traits@D@std@@V?$allocator@D@2@@std@@AEAAXXZ";
	.scl	2;
	.type	32;
	.endef
	.section	.text,"xr",discard,"?_Tidy_init@?$basic_string@DU?$char_traits@D@std@@V?$allocator@D@2@@std@@AEAAXXZ"
	.globl	"?_Tidy_init@?$basic_string@DU?$char_traits@D@std@@V?$allocator@D@2@@std@@AEAAXXZ" # -- Begin function ?_Tidy_init@?$basic_string@DU?$char_traits@D@std@@V?$allocator@D@2@@std@@AEAAXXZ
	.p2align	4, 0x90
"?_Tidy_init@?$basic_string@DU?$char_traits@D@std@@V?$allocator@D@2@@std@@AEAAXXZ": # @"?_Tidy_init@?$basic_string@DU?$char_traits@D@std@@V?$allocator@D@2@@std@@AEAAXXZ"
.seh_proc "?_Tidy_init@?$basic_string@DU?$char_traits@D@std@@V?$allocator@D@2@@std@@AEAAXXZ"
# %bb.0:
	sub	rsp, 56
	.seh_stackalloc 56
	.seh_endprologue
	mov	qword ptr [rsp + 48], rcx
	mov	rax, qword ptr [rsp + 48]
	mov	qword ptr [rsp + 40], rax
	mov	rax, qword ptr [rsp + 40]
	mov	qword ptr [rax + 16], 0
	mov	rax, qword ptr [rsp + 40]
	mov	qword ptr [rax + 24], 15
	mov	rcx, qword ptr [rsp + 40]
	call	"?_Activate_SSO_buffer@?$_String_val@U?$_Simple_types@D@std@@@std@@QEAAXXZ"
	mov	byte ptr [rsp + 39], 0
	mov	rcx, qword ptr [rsp + 40]
	lea	rdx, [rsp + 39]
	call	"?assign@?$_Narrow_char_traits@DH@std@@SAXAEADAEBD@Z"
	nop
	add	rsp, 56
	ret
	.seh_endproc
                                        # -- End function
	.def	"??0?$allocator@D@std@@QEAA@XZ";
	.scl	2;
	.type	32;
	.endef
	.section	.text,"xr",discard,"??0?$allocator@D@std@@QEAA@XZ"
	.globl	"??0?$allocator@D@std@@QEAA@XZ" # -- Begin function ??0?$allocator@D@std@@QEAA@XZ
	.p2align	4, 0x90
"??0?$allocator@D@std@@QEAA@XZ":        # @"??0?$allocator@D@std@@QEAA@XZ"
.seh_proc "??0?$allocator@D@std@@QEAA@XZ"
# %bb.0:
	push	rax
	.seh_stackalloc 8
	.seh_endprologue
	mov	qword ptr [rsp], rcx
	mov	rax, qword ptr [rsp]
	pop	rcx
	ret
	.seh_endproc
                                        # -- End function
	.def	"??0?$_String_val@U?$_Simple_types@D@std@@@std@@QEAA@XZ";
	.scl	2;
	.type	32;
	.endef
	.section	.text,"xr",discard,"??0?$_String_val@U?$_Simple_types@D@std@@@std@@QEAA@XZ"
	.globl	"??0?$_String_val@U?$_Simple_types@D@std@@@std@@QEAA@XZ" # -- Begin function ??0?$_String_val@U?$_Simple_types@D@std@@@std@@QEAA@XZ
	.p2align	4, 0x90
"??0?$_String_val@U?$_Simple_types@D@std@@@std@@QEAA@XZ": # @"??0?$_String_val@U?$_Simple_types@D@std@@@std@@QEAA@XZ"
.seh_proc "??0?$_String_val@U?$_Simple_types@D@std@@@std@@QEAA@XZ"
# %bb.0:
	sub	rsp, 56
	.seh_stackalloc 56
	.seh_endprologue
	mov	qword ptr [rsp + 48], rcx
	mov	rcx, qword ptr [rsp + 48]
	mov	qword ptr [rsp + 40], rcx       # 8-byte Spill
	call	"??0_Bxty@?$_String_val@U?$_Simple_types@D@std@@@std@@QEAA@XZ"
                                        # kill: def $rcx killed $rax
	mov	rax, qword ptr [rsp + 40]       # 8-byte Reload
	mov	qword ptr [rax + 16], 0
	mov	qword ptr [rax + 24], 0
	add	rsp, 56
	ret
	.seh_endproc
                                        # -- End function
	.def	"??0_Bxty@?$_String_val@U?$_Simple_types@D@std@@@std@@QEAA@XZ";
	.scl	2;
	.type	32;
	.endef
	.section	.text,"xr",discard,"??0_Bxty@?$_String_val@U?$_Simple_types@D@std@@@std@@QEAA@XZ"
	.globl	"??0_Bxty@?$_String_val@U?$_Simple_types@D@std@@@std@@QEAA@XZ" # -- Begin function ??0_Bxty@?$_String_val@U?$_Simple_types@D@std@@@std@@QEAA@XZ
	.p2align	4, 0x90
"??0_Bxty@?$_String_val@U?$_Simple_types@D@std@@@std@@QEAA@XZ": # @"??0_Bxty@?$_String_val@U?$_Simple_types@D@std@@@std@@QEAA@XZ"
.seh_proc "??0_Bxty@?$_String_val@U?$_Simple_types@D@std@@@std@@QEAA@XZ"
# %bb.0:
	sub	rsp, 56
	.seh_stackalloc 56
	.seh_endprologue
	mov	qword ptr [rsp + 48], rcx
	mov	rcx, qword ptr [rsp + 48]
	mov	qword ptr [rsp + 40], rcx       # 8-byte Spill
	xor	edx, edx
	mov	r8d, 16
	call	memset
	mov	rax, qword ptr [rsp + 40]       # 8-byte Reload
	add	rsp, 56
	ret
	.seh_endproc
                                        # -- End function
	.def	"??$_Reallocate_grow_by@V<lambda_1>@?0??reserve@?$basic_string@DU?$char_traits@D@std@@V?$allocator@D@2@@std@@QEAAX_K@Z@$$V@?$basic_string@DU?$char_traits@D@std@@V?$allocator@D@2@@std@@AEAAAEAV01@_KV<lambda_1>@?0??reserve@01@QEAAX0@Z@@Z";
	.scl	2;
	.type	32;
	.endef
	.section	.text,"xr",discard,"??$_Reallocate_grow_by@V<lambda_1>@?0??reserve@?$basic_string@DU?$char_traits@D@std@@V?$allocator@D@2@@std@@QEAAX_K@Z@$$V@?$basic_string@DU?$char_traits@D@std@@V?$allocator@D@2@@std@@AEAAAEAV01@_KV<lambda_1>@?0??reserve@01@QEAAX0@Z@@Z"
	.globl	"??$_Reallocate_grow_by@V<lambda_1>@?0??reserve@?$basic_string@DU?$char_traits@D@std@@V?$allocator@D@2@@std@@QEAAX_K@Z@$$V@?$basic_string@DU?$char_traits@D@std@@V?$allocator@D@2@@std@@AEAAAEAV01@_KV<lambda_1>@?0??reserve@01@QEAAX0@Z@@Z" # -- Begin function ??$_Reallocate_grow_by@V<lambda_1>@?0??reserve@?$basic_string@DU?$char_traits@D@std@@V?$allocator@D@2@@std@@QEAAX_K@Z@$$V@?$basic_string@DU?$char_traits@D@std@@V?$allocator@D@2@@std@@AEAAAEAV01@_KV<lambda_1>@?0??reserve@01@QEAAX0@Z@@Z
	.p2align	4, 0x90
"??$_Reallocate_grow_by@V<lambda_1>@?0??reserve@?$basic_string@DU?$char_traits@D@std@@V?$allocator@D@2@@std@@QEAAX_K@Z@$$V@?$basic_string@DU?$char_traits@D@std@@V?$allocator@D@2@@std@@AEAAAEAV01@_KV<lambda_1>@?0??reserve@01@QEAAX0@Z@@Z": # @"??$_Reallocate_grow_by@V<lambda_1>@?0??reserve@?$basic_string@DU?$char_traits@D@std@@V?$allocator@D@2@@std@@QEAAX_K@Z@$$V@?$basic_string@DU?$char_traits@D@std@@V?$allocator@D@2@@std@@AEAAAEAV01@_KV<lambda_1>@?0??reserve@01@QEAAX0@Z@@Z"
.seh_proc "??$_Reallocate_grow_by@V<lambda_1>@?0??reserve@?$basic_string@DU?$char_traits@D@std@@V?$allocator@D@2@@std@@QEAAX_K@Z@$$V@?$basic_string@DU?$char_traits@D@std@@V?$allocator@D@2@@std@@AEAAAEAV01@_KV<lambda_1>@?0??reserve@01@QEAAX0@Z@@Z"
# %bb.0:
	sub	rsp, 152
	.seh_stackalloc 152
	.seh_endprologue
	mov	byte ptr [rsp + 144], r8b
	mov	qword ptr [rsp + 136], rdx
	mov	qword ptr [rsp + 128], rcx
	mov	rcx, qword ptr [rsp + 128]
	mov	qword ptr [rsp + 48], rcx       # 8-byte Spill
	mov	qword ptr [rsp + 120], rcx
	mov	rax, qword ptr [rsp + 120]
	mov	rax, qword ptr [rax + 16]
	mov	qword ptr [rsp + 112], rax
	call	"?max_size@?$basic_string@DU?$char_traits@D@std@@V?$allocator@D@2@@std@@QEBA_KXZ"
	sub	rax, qword ptr [rsp + 112]
	cmp	rax, qword ptr [rsp + 136]
	jae	.LBB104_2
# %bb.1:
	call	"?_Xlen_string@std@@YAXXZ"
.LBB104_2:
	mov	rcx, qword ptr [rsp + 48]       # 8-byte Reload
	mov	rax, qword ptr [rsp + 112]
	add	rax, qword ptr [rsp + 136]
	mov	qword ptr [rsp + 104], rax
	mov	rax, qword ptr [rsp + 120]
	mov	rax, qword ptr [rax + 24]
	mov	qword ptr [rsp + 96], rax
	mov	rdx, qword ptr [rsp + 104]
	call	"?_Calculate_growth@?$basic_string@DU?$char_traits@D@std@@V?$allocator@D@2@@std@@AEBA_K_K@Z"
	mov	rcx, qword ptr [rsp + 48]       # 8-byte Reload
	mov	qword ptr [rsp + 88], rax
	call	"?_Getal@?$basic_string@DU?$char_traits@D@std@@V?$allocator@D@2@@std@@AEAAAEAV?$allocator@D@2@XZ"
	mov	qword ptr [rsp + 80], rax
	mov	rcx, qword ptr [rsp + 80]
	mov	rdx, qword ptr [rsp + 88]
	add	rdx, 1
	call	"?allocate@?$allocator@D@std@@QEAAPEAD_K@Z"
	mov	qword ptr [rsp + 72], rax
	mov	rax, qword ptr [rsp + 88]
	add	rax, 1
	mov	qword ptr [rsp + 40], rax       # 8-byte Spill
	mov	rcx, qword ptr [rsp + 72]
	call	"??$_Unfancy@D@std@@YAPEADPEAD@Z"
	mov	rdx, qword ptr [rsp + 40]       # 8-byte Reload
	mov	rcx, rax
	call	"?_Start_element_lifetimes@?$basic_string@DU?$char_traits@D@std@@V?$allocator@D@2@@std@@CAXQEAD_K@Z"
	mov	rcx, qword ptr [rsp + 120]
	call	"?_Orphan_all@_Container_base0@std@@QEAAXXZ"
	mov	rcx, qword ptr [rsp + 104]
	mov	rax, qword ptr [rsp + 120]
	mov	qword ptr [rax + 16], rcx
	mov	rcx, qword ptr [rsp + 88]
	mov	rax, qword ptr [rsp + 120]
	mov	qword ptr [rax + 24], rcx
	mov	rcx, qword ptr [rsp + 72]
	call	"??$_Unfancy@D@std@@YAPEADPEAD@Z"
	mov	qword ptr [rsp + 64], rax
	mov	eax, 16
	cmp	rax, qword ptr [rsp + 96]
	ja	.LBB104_4
# %bb.3:
	mov	rax, qword ptr [rsp + 120]
	mov	rax, qword ptr [rax]
	mov	qword ptr [rsp + 56], rax
	mov	rax, qword ptr [rsp + 112]
	mov	qword ptr [rsp + 32], rax       # 8-byte Spill
	mov	rcx, qword ptr [rsp + 56]
	call	"??$_Unfancy@D@std@@YAPEADPEAD@Z"
	mov	r9, qword ptr [rsp + 32]        # 8-byte Reload
	mov	r8, rax
	mov	rdx, qword ptr [rsp + 64]
	lea	rcx, [rsp + 144]
	call	"??R<lambda_1>@?0??reserve@?$basic_string@DU?$char_traits@D@std@@V?$allocator@D@2@@std@@QEAAX_K@Z@QEBA?A?<auto>@@QEADQEBD0@Z"
	mov	rcx, qword ptr [rsp + 80]
	mov	r8, qword ptr [rsp + 96]
	add	r8, 1
	mov	rdx, qword ptr [rsp + 56]
	call	"?deallocate@?$allocator@D@std@@QEAAXQEAD_K@Z"
	mov	rcx, qword ptr [rsp + 72]
	mov	rax, qword ptr [rsp + 120]
	mov	qword ptr [rax], rcx
	jmp	.LBB104_5
.LBB104_4:
	mov	r9, qword ptr [rsp + 112]
	mov	r8, qword ptr [rsp + 120]
	mov	rdx, qword ptr [rsp + 64]
	lea	rcx, [rsp + 144]
	call	"??R<lambda_1>@?0??reserve@?$basic_string@DU?$char_traits@D@std@@V?$allocator@D@2@@std@@QEAAX_K@Z@QEBA?A?<auto>@@QEADQEBD0@Z"
	mov	rcx, qword ptr [rsp + 120]
	lea	rdx, [rsp + 72]
	call	"??$_Construct_in_place@PEADAEBQEAD@std@@YAXAEAPEADAEBQEAD@Z"
.LBB104_5:
	mov	rax, qword ptr [rsp + 48]       # 8-byte Reload
	add	rsp, 152
	ret
	.seh_endproc
                                        # -- End function
	.def	"?max_size@?$basic_string@DU?$char_traits@D@std@@V?$allocator@D@2@@std@@QEBA_KXZ";
	.scl	2;
	.type	32;
	.endef
	.section	.text,"xr",discard,"?max_size@?$basic_string@DU?$char_traits@D@std@@V?$allocator@D@2@@std@@QEBA_KXZ"
	.globl	"?max_size@?$basic_string@DU?$char_traits@D@std@@V?$allocator@D@2@@std@@QEBA_KXZ" # -- Begin function ?max_size@?$basic_string@DU?$char_traits@D@std@@V?$allocator@D@2@@std@@QEBA_KXZ
	.p2align	4, 0x90
"?max_size@?$basic_string@DU?$char_traits@D@std@@V?$allocator@D@2@@std@@QEBA_KXZ": # @"?max_size@?$basic_string@DU?$char_traits@D@std@@V?$allocator@D@2@@std@@QEBA_KXZ"
.seh_proc "?max_size@?$basic_string@DU?$char_traits@D@std@@V?$allocator@D@2@@std@@QEBA_KXZ"
# %bb.0:
	sub	rsp, 88
	.seh_stackalloc 88
	.seh_endprologue
	mov	qword ptr [rsp + 80], rcx
	mov	rcx, qword ptr [rsp + 80]
	call	"?_Getal@?$basic_string@DU?$char_traits@D@std@@V?$allocator@D@2@@std@@AEBAAEBV?$allocator@D@2@XZ"
	mov	rcx, rax
	call	"?max_size@?$_Default_allocator_traits@V?$allocator@D@std@@@std@@SA_KAEBV?$allocator@D@2@@Z"
	mov	qword ptr [rsp + 72], rax
	mov	qword ptr [rsp + 56], 16
	lea	rcx, [rsp + 72]
	lea	rdx, [rsp + 56]
	call	"??$max@_K@std@@YAAEB_KAEB_K0@Z"
	mov	rax, qword ptr [rax]
	mov	qword ptr [rsp + 64], rax
	mov	rax, qword ptr [rsp + 64]
	sub	rax, 1
	mov	qword ptr [rsp + 48], rax
	call	"?max@?$numeric_limits@_J@std@@SA_JXZ"
	mov	qword ptr [rsp + 40], rax
	lea	rcx, [rsp + 40]
	lea	rdx, [rsp + 48]
	call	"??$min@_K@std@@YAAEB_KAEB_K0@Z"
	mov	rax, qword ptr [rax]
	add	rsp, 88
	ret
	.seh_endproc
                                        # -- End function
	.def	"?_Xlen_string@std@@YAXXZ";
	.scl	2;
	.type	32;
	.endef
	.section	.text,"xr",discard,"?_Xlen_string@std@@YAXXZ"
	.globl	"?_Xlen_string@std@@YAXXZ"      # -- Begin function ?_Xlen_string@std@@YAXXZ
	.p2align	4, 0x90
"?_Xlen_string@std@@YAXXZ":             # @"?_Xlen_string@std@@YAXXZ"
.seh_proc "?_Xlen_string@std@@YAXXZ"
# %bb.0:
	sub	rsp, 40
	.seh_stackalloc 40
	.seh_endprologue
	lea	rcx, [rip + "??_C@_0BA@JFNIOLAK@string?5too?5long?$AA@"]
	call	"?_Xlength_error@std@@YAXPEBD@Z"
	int3
	.seh_endproc
                                        # -- End function
	.def	"?_Calculate_growth@?$basic_string@DU?$char_traits@D@std@@V?$allocator@D@2@@std@@AEBA_K_K@Z";
	.scl	2;
	.type	32;
	.endef
	.section	.text,"xr",discard,"?_Calculate_growth@?$basic_string@DU?$char_traits@D@std@@V?$allocator@D@2@@std@@AEBA_K_K@Z"
	.globl	"?_Calculate_growth@?$basic_string@DU?$char_traits@D@std@@V?$allocator@D@2@@std@@AEBA_K_K@Z" # -- Begin function ?_Calculate_growth@?$basic_string@DU?$char_traits@D@std@@V?$allocator@D@2@@std@@AEBA_K_K@Z
	.p2align	4, 0x90
"?_Calculate_growth@?$basic_string@DU?$char_traits@D@std@@V?$allocator@D@2@@std@@AEBA_K_K@Z": # @"?_Calculate_growth@?$basic_string@DU?$char_traits@D@std@@V?$allocator@D@2@@std@@AEBA_K_K@Z"
.seh_proc "?_Calculate_growth@?$basic_string@DU?$char_traits@D@std@@V?$allocator@D@2@@std@@AEBA_K_K@Z"
# %bb.0:
	sub	rsp, 56
	.seh_stackalloc 56
	.seh_endprologue
	mov	qword ptr [rsp + 48], rdx
	mov	qword ptr [rsp + 40], rcx
	mov	rcx, qword ptr [rsp + 40]
	mov	qword ptr [rsp + 32], rcx       # 8-byte Spill
	call	"?max_size@?$basic_string@DU?$char_traits@D@std@@V?$allocator@D@2@@std@@QEBA_KXZ"
	mov	r8, rax
	mov	rax, qword ptr [rsp + 32]       # 8-byte Reload
	mov	rdx, qword ptr [rax + 24]
	mov	rcx, qword ptr [rsp + 48]
	call	"?_Calculate_growth@?$basic_string@DU?$char_traits@D@std@@V?$allocator@D@2@@std@@CA_K_K00@Z"
	nop
	add	rsp, 56
	ret
	.seh_endproc
                                        # -- End function
	.def	"?allocate@?$allocator@D@std@@QEAAPEAD_K@Z";
	.scl	2;
	.type	32;
	.endef
	.section	.text,"xr",discard,"?allocate@?$allocator@D@std@@QEAAPEAD_K@Z"
	.globl	"?allocate@?$allocator@D@std@@QEAAPEAD_K@Z" # -- Begin function ?allocate@?$allocator@D@std@@QEAAPEAD_K@Z
	.p2align	4, 0x90
"?allocate@?$allocator@D@std@@QEAAPEAD_K@Z": # @"?allocate@?$allocator@D@std@@QEAAPEAD_K@Z"
.seh_proc "?allocate@?$allocator@D@std@@QEAAPEAD_K@Z"
# %bb.0:
	sub	rsp, 56
	.seh_stackalloc 56
	.seh_endprologue
	mov	qword ptr [rsp + 48], rdx
	mov	qword ptr [rsp + 40], rcx
	mov	rcx, qword ptr [rsp + 48]
	call	"??$_Get_size_of_n@$00@std@@YA_K_K@Z"
	mov	rcx, rax
	call	"??$_Allocate@$0BA@U_Default_allocate_traits@std@@$0A@@std@@YAPEAX_K@Z"
	nop
	add	rsp, 56
	ret
	.seh_endproc
                                        # -- End function
	.def	"?_Start_element_lifetimes@?$basic_string@DU?$char_traits@D@std@@V?$allocator@D@2@@std@@CAXQEAD_K@Z";
	.scl	2;
	.type	32;
	.endef
	.section	.text,"xr",discard,"?_Start_element_lifetimes@?$basic_string@DU?$char_traits@D@std@@V?$allocator@D@2@@std@@CAXQEAD_K@Z"
	.globl	"?_Start_element_lifetimes@?$basic_string@DU?$char_traits@D@std@@V?$allocator@D@2@@std@@CAXQEAD_K@Z" # -- Begin function ?_Start_element_lifetimes@?$basic_string@DU?$char_traits@D@std@@V?$allocator@D@2@@std@@CAXQEAD_K@Z
	.p2align	4, 0x90
"?_Start_element_lifetimes@?$basic_string@DU?$char_traits@D@std@@V?$allocator@D@2@@std@@CAXQEAD_K@Z": # @"?_Start_element_lifetimes@?$basic_string@DU?$char_traits@D@std@@V?$allocator@D@2@@std@@CAXQEAD_K@Z"
.seh_proc "?_Start_element_lifetimes@?$basic_string@DU?$char_traits@D@std@@V?$allocator@D@2@@std@@CAXQEAD_K@Z"
# %bb.0:
	sub	rsp, 16
	.seh_stackalloc 16
	.seh_endprologue
	mov	qword ptr [rsp + 8], rdx
	mov	qword ptr [rsp], rcx
	add	rsp, 16
	ret
	.seh_endproc
                                        # -- End function
	.def	"??$_Unfancy@D@std@@YAPEADPEAD@Z";
	.scl	2;
	.type	32;
	.endef
	.section	.text,"xr",discard,"??$_Unfancy@D@std@@YAPEADPEAD@Z"
	.globl	"??$_Unfancy@D@std@@YAPEADPEAD@Z" # -- Begin function ??$_Unfancy@D@std@@YAPEADPEAD@Z
	.p2align	4, 0x90
"??$_Unfancy@D@std@@YAPEADPEAD@Z":      # @"??$_Unfancy@D@std@@YAPEADPEAD@Z"
.seh_proc "??$_Unfancy@D@std@@YAPEADPEAD@Z"
# %bb.0:
	push	rax
	.seh_stackalloc 8
	.seh_endprologue
	mov	qword ptr [rsp], rcx
	mov	rax, qword ptr [rsp]
	pop	rcx
	ret
	.seh_endproc
                                        # -- End function
	.def	"??R<lambda_1>@?0??reserve@?$basic_string@DU?$char_traits@D@std@@V?$allocator@D@2@@std@@QEAAX_K@Z@QEBA?A?<auto>@@QEADQEBD0@Z";
	.scl	2;
	.type	32;
	.endef
	.section	.text,"xr",discard,"??R<lambda_1>@?0??reserve@?$basic_string@DU?$char_traits@D@std@@V?$allocator@D@2@@std@@QEAAX_K@Z@QEBA?A?<auto>@@QEADQEBD0@Z"
	.globl	"??R<lambda_1>@?0??reserve@?$basic_string@DU?$char_traits@D@std@@V?$allocator@D@2@@std@@QEAAX_K@Z@QEBA?A?<auto>@@QEADQEBD0@Z" # -- Begin function ??R<lambda_1>@?0??reserve@?$basic_string@DU?$char_traits@D@std@@V?$allocator@D@2@@std@@QEAAX_K@Z@QEBA?A?<auto>@@QEADQEBD0@Z
	.p2align	4, 0x90
"??R<lambda_1>@?0??reserve@?$basic_string@DU?$char_traits@D@std@@V?$allocator@D@2@@std@@QEAAX_K@Z@QEBA?A?<auto>@@QEADQEBD0@Z": # @"??R<lambda_1>@?0??reserve@?$basic_string@DU?$char_traits@D@std@@V?$allocator@D@2@@std@@QEAAX_K@Z@QEBA?A?<auto>@@QEADQEBD0@Z"
.seh_proc "??R<lambda_1>@?0??reserve@?$basic_string@DU?$char_traits@D@std@@V?$allocator@D@2@@std@@QEAAX_K@Z@QEBA?A?<auto>@@QEADQEBD0@Z"
# %bb.0:
	sub	rsp, 72
	.seh_stackalloc 72
	.seh_endprologue
	mov	qword ptr [rsp + 64], r9
	mov	qword ptr [rsp + 56], r8
	mov	qword ptr [rsp + 48], rdx
	mov	qword ptr [rsp + 40], rcx
	mov	r8, qword ptr [rsp + 64]
	add	r8, 1
	mov	rdx, qword ptr [rsp + 56]
	mov	rcx, qword ptr [rsp + 48]
	call	"?copy@?$_Char_traits@DH@std@@SAPEADQEADQEBD_K@Z"
	nop
	add	rsp, 72
	ret
	.seh_endproc
                                        # -- End function
	.def	"??$_Construct_in_place@PEADAEBQEAD@std@@YAXAEAPEADAEBQEAD@Z";
	.scl	2;
	.type	32;
	.endef
	.section	.text,"xr",discard,"??$_Construct_in_place@PEADAEBQEAD@std@@YAXAEAPEADAEBQEAD@Z"
	.globl	"??$_Construct_in_place@PEADAEBQEAD@std@@YAXAEAPEADAEBQEAD@Z" # -- Begin function ??$_Construct_in_place@PEADAEBQEAD@std@@YAXAEAPEADAEBQEAD@Z
	.p2align	4, 0x90
"??$_Construct_in_place@PEADAEBQEAD@std@@YAXAEAPEADAEBQEAD@Z": # @"??$_Construct_in_place@PEADAEBQEAD@std@@YAXAEAPEADAEBQEAD@Z"
.seh_proc "??$_Construct_in_place@PEADAEBQEAD@std@@YAXAEAPEADAEBQEAD@Z"
# %bb.0:
	sub	rsp, 56
	.seh_stackalloc 56
	.seh_endprologue
	mov	qword ptr [rsp + 48], rdx
	mov	qword ptr [rsp + 40], rcx
	mov	rcx, qword ptr [rsp + 40]
	call	"??$_Voidify_iter@PEAPEAD@std@@YAPEAXPEAPEAD@Z"
	mov	rcx, qword ptr [rsp + 48]
	mov	rcx, qword ptr [rcx]
	mov	qword ptr [rax], rcx
	add	rsp, 56
	ret
	.seh_endproc
                                        # -- End function
	.def	"?max_size@?$_Default_allocator_traits@V?$allocator@D@std@@@std@@SA_KAEBV?$allocator@D@2@@Z";
	.scl	2;
	.type	32;
	.endef
	.section	.text,"xr",discard,"?max_size@?$_Default_allocator_traits@V?$allocator@D@std@@@std@@SA_KAEBV?$allocator@D@2@@Z"
	.globl	"?max_size@?$_Default_allocator_traits@V?$allocator@D@std@@@std@@SA_KAEBV?$allocator@D@2@@Z" # -- Begin function ?max_size@?$_Default_allocator_traits@V?$allocator@D@std@@@std@@SA_KAEBV?$allocator@D@2@@Z
	.p2align	4, 0x90
"?max_size@?$_Default_allocator_traits@V?$allocator@D@std@@@std@@SA_KAEBV?$allocator@D@2@@Z": # @"?max_size@?$_Default_allocator_traits@V?$allocator@D@std@@@std@@SA_KAEBV?$allocator@D@2@@Z"
.seh_proc "?max_size@?$_Default_allocator_traits@V?$allocator@D@std@@@std@@SA_KAEBV?$allocator@D@2@@Z"
# %bb.0:
	push	rax
	.seh_stackalloc 8
	.seh_endprologue
	mov	qword ptr [rsp], rcx
	mov	rax, -1
	pop	rcx
	ret
	.seh_endproc
                                        # -- End function
	.def	"?_Getal@?$basic_string@DU?$char_traits@D@std@@V?$allocator@D@2@@std@@AEBAAEBV?$allocator@D@2@XZ";
	.scl	2;
	.type	32;
	.endef
	.section	.text,"xr",discard,"?_Getal@?$basic_string@DU?$char_traits@D@std@@V?$allocator@D@2@@std@@AEBAAEBV?$allocator@D@2@XZ"
	.globl	"?_Getal@?$basic_string@DU?$char_traits@D@std@@V?$allocator@D@2@@std@@AEBAAEBV?$allocator@D@2@XZ" # -- Begin function ?_Getal@?$basic_string@DU?$char_traits@D@std@@V?$allocator@D@2@@std@@AEBAAEBV?$allocator@D@2@XZ
	.p2align	4, 0x90
"?_Getal@?$basic_string@DU?$char_traits@D@std@@V?$allocator@D@2@@std@@AEBAAEBV?$allocator@D@2@XZ": # @"?_Getal@?$basic_string@DU?$char_traits@D@std@@V?$allocator@D@2@@std@@AEBAAEBV?$allocator@D@2@XZ"
.seh_proc "?_Getal@?$basic_string@DU?$char_traits@D@std@@V?$allocator@D@2@@std@@AEBAAEBV?$allocator@D@2@XZ"
# %bb.0:
	sub	rsp, 40
	.seh_stackalloc 40
	.seh_endprologue
	mov	qword ptr [rsp + 32], rcx
	mov	rcx, qword ptr [rsp + 32]
	call	"?_Get_first@?$_Compressed_pair@V?$allocator@D@std@@V?$_String_val@U?$_Simple_types@D@std@@@2@$00@std@@QEBAAEBV?$allocator@D@2@XZ"
	nop
	add	rsp, 40
	ret
	.seh_endproc
                                        # -- End function
	.def	"??$max@_K@std@@YAAEB_KAEB_K0@Z";
	.scl	2;
	.type	32;
	.endef
	.section	.text,"xr",discard,"??$max@_K@std@@YAAEB_KAEB_K0@Z"
	.globl	"??$max@_K@std@@YAAEB_KAEB_K0@Z" # -- Begin function ??$max@_K@std@@YAAEB_KAEB_K0@Z
	.p2align	4, 0x90
"??$max@_K@std@@YAAEB_KAEB_K0@Z":       # @"??$max@_K@std@@YAAEB_KAEB_K0@Z"
.seh_proc "??$max@_K@std@@YAAEB_KAEB_K0@Z"
# %bb.0:
	sub	rsp, 24
	.seh_stackalloc 24
	.seh_endprologue
	mov	qword ptr [rsp + 16], rdx
	mov	qword ptr [rsp + 8], rcx
	mov	rax, qword ptr [rsp + 8]
	mov	rax, qword ptr [rax]
	mov	rcx, qword ptr [rsp + 16]
	cmp	rax, qword ptr [rcx]
	jae	.LBB115_2
# %bb.1:
	mov	rax, qword ptr [rsp + 16]
	mov	qword ptr [rsp], rax            # 8-byte Spill
	jmp	.LBB115_3
.LBB115_2:
	mov	rax, qword ptr [rsp + 8]
	mov	qword ptr [rsp], rax            # 8-byte Spill
.LBB115_3:
	mov	rax, qword ptr [rsp]            # 8-byte Reload
	add	rsp, 24
	ret
	.seh_endproc
                                        # -- End function
	.def	"?_Get_first@?$_Compressed_pair@V?$allocator@D@std@@V?$_String_val@U?$_Simple_types@D@std@@@2@$00@std@@QEBAAEBV?$allocator@D@2@XZ";
	.scl	2;
	.type	32;
	.endef
	.section	.text,"xr",discard,"?_Get_first@?$_Compressed_pair@V?$allocator@D@std@@V?$_String_val@U?$_Simple_types@D@std@@@2@$00@std@@QEBAAEBV?$allocator@D@2@XZ"
	.globl	"?_Get_first@?$_Compressed_pair@V?$allocator@D@std@@V?$_String_val@U?$_Simple_types@D@std@@@2@$00@std@@QEBAAEBV?$allocator@D@2@XZ" # -- Begin function ?_Get_first@?$_Compressed_pair@V?$allocator@D@std@@V?$_String_val@U?$_Simple_types@D@std@@@2@$00@std@@QEBAAEBV?$allocator@D@2@XZ
	.p2align	4, 0x90
"?_Get_first@?$_Compressed_pair@V?$allocator@D@std@@V?$_String_val@U?$_Simple_types@D@std@@@2@$00@std@@QEBAAEBV?$allocator@D@2@XZ": # @"?_Get_first@?$_Compressed_pair@V?$allocator@D@std@@V?$_String_val@U?$_Simple_types@D@std@@@2@$00@std@@QEBAAEBV?$allocator@D@2@XZ"
.seh_proc "?_Get_first@?$_Compressed_pair@V?$allocator@D@std@@V?$_String_val@U?$_Simple_types@D@std@@@2@$00@std@@QEBAAEBV?$allocator@D@2@XZ"
# %bb.0:
	push	rax
	.seh_stackalloc 8
	.seh_endprologue
	mov	qword ptr [rsp], rcx
	mov	rax, qword ptr [rsp]
	pop	rcx
	ret
	.seh_endproc
                                        # -- End function
	.def	"?_Calculate_growth@?$basic_string@DU?$char_traits@D@std@@V?$allocator@D@2@@std@@CA_K_K00@Z";
	.scl	2;
	.type	32;
	.endef
	.section	.text,"xr",discard,"?_Calculate_growth@?$basic_string@DU?$char_traits@D@std@@V?$allocator@D@2@@std@@CA_K_K00@Z"
	.globl	"?_Calculate_growth@?$basic_string@DU?$char_traits@D@std@@V?$allocator@D@2@@std@@CA_K_K00@Z" # -- Begin function ?_Calculate_growth@?$basic_string@DU?$char_traits@D@std@@V?$allocator@D@2@@std@@CA_K_K00@Z
	.p2align	4, 0x90
"?_Calculate_growth@?$basic_string@DU?$char_traits@D@std@@V?$allocator@D@2@@std@@CA_K_K00@Z": # @"?_Calculate_growth@?$basic_string@DU?$char_traits@D@std@@V?$allocator@D@2@@std@@CA_K_K00@Z"
.seh_proc "?_Calculate_growth@?$basic_string@DU?$char_traits@D@std@@V?$allocator@D@2@@std@@CA_K_K00@Z"
# %bb.0:
	sub	rsp, 88
	.seh_stackalloc 88
	.seh_endprologue
	mov	qword ptr [rsp + 72], r8
	mov	qword ptr [rsp + 64], rdx
	mov	qword ptr [rsp + 56], rcx
	mov	rax, qword ptr [rsp + 56]
	or	rax, 15
	mov	qword ptr [rsp + 48], rax
	mov	rax, qword ptr [rsp + 48]
	cmp	rax, qword ptr [rsp + 72]
	jbe	.LBB117_2
# %bb.1:
	mov	rax, qword ptr [rsp + 72]
	mov	qword ptr [rsp + 80], rax
	jmp	.LBB117_5
.LBB117_2:
	mov	rax, qword ptr [rsp + 64]
	mov	rcx, qword ptr [rsp + 72]
	mov	rdx, qword ptr [rsp + 64]
	shr	rdx, 1
	sub	rcx, rdx
	cmp	rax, rcx
	jbe	.LBB117_4
# %bb.3:
	mov	rax, qword ptr [rsp + 72]
	mov	qword ptr [rsp + 80], rax
	jmp	.LBB117_5
.LBB117_4:
	mov	rax, qword ptr [rsp + 64]
	mov	rcx, qword ptr [rsp + 64]
	shr	rcx, 1
	add	rax, rcx
	mov	qword ptr [rsp + 40], rax
	lea	rcx, [rsp + 48]
	lea	rdx, [rsp + 40]
	call	"??$max@_K@std@@YAAEB_KAEB_K0@Z"
	mov	rax, qword ptr [rax]
	mov	qword ptr [rsp + 80], rax
.LBB117_5:
	mov	rax, qword ptr [rsp + 80]
	add	rsp, 88
	ret
	.seh_endproc
                                        # -- End function
	.def	"??$_Get_size_of_n@$00@std@@YA_K_K@Z";
	.scl	2;
	.type	32;
	.endef
	.section	.text,"xr",discard,"??$_Get_size_of_n@$00@std@@YA_K_K@Z"
	.globl	"??$_Get_size_of_n@$00@std@@YA_K_K@Z" # -- Begin function ??$_Get_size_of_n@$00@std@@YA_K_K@Z
	.p2align	4, 0x90
"??$_Get_size_of_n@$00@std@@YA_K_K@Z":  # @"??$_Get_size_of_n@$00@std@@YA_K_K@Z"
.seh_proc "??$_Get_size_of_n@$00@std@@YA_K_K@Z"
# %bb.0:
	sub	rsp, 16
	.seh_stackalloc 16
	.seh_endprologue
	mov	qword ptr [rsp + 8], rcx
	mov	byte ptr [rsp + 7], 0
	mov	rax, qword ptr [rsp + 8]
	shl	rax, 0
	add	rsp, 16
	ret
	.seh_endproc
                                        # -- End function
	.def	"?copy@?$_Char_traits@DH@std@@SAPEADQEADQEBD_K@Z";
	.scl	2;
	.type	32;
	.endef
	.section	.text,"xr",discard,"?copy@?$_Char_traits@DH@std@@SAPEADQEADQEBD_K@Z"
	.globl	"?copy@?$_Char_traits@DH@std@@SAPEADQEADQEBD_K@Z" # -- Begin function ?copy@?$_Char_traits@DH@std@@SAPEADQEADQEBD_K@Z
	.p2align	4, 0x90
"?copy@?$_Char_traits@DH@std@@SAPEADQEADQEBD_K@Z": # @"?copy@?$_Char_traits@DH@std@@SAPEADQEADQEBD_K@Z"
.seh_proc "?copy@?$_Char_traits@DH@std@@SAPEADQEADQEBD_K@Z"
# %bb.0:
	sub	rsp, 56
	.seh_stackalloc 56
	.seh_endprologue
	mov	qword ptr [rsp + 48], r8
	mov	qword ptr [rsp + 40], rdx
	mov	qword ptr [rsp + 32], rcx
	mov	rcx, qword ptr [rsp + 32]
	mov	rdx, qword ptr [rsp + 40]
	mov	r8, qword ptr [rsp + 48]
	shl	r8, 0
	call	memcpy
	mov	rax, qword ptr [rsp + 32]
	add	rsp, 56
	ret
	.seh_endproc
                                        # -- End function
	.def	"??$_Voidify_iter@PEAPEAD@std@@YAPEAXPEAPEAD@Z";
	.scl	2;
	.type	32;
	.endef
	.section	.text,"xr",discard,"??$_Voidify_iter@PEAPEAD@std@@YAPEAXPEAPEAD@Z"
	.globl	"??$_Voidify_iter@PEAPEAD@std@@YAPEAXPEAPEAD@Z" # -- Begin function ??$_Voidify_iter@PEAPEAD@std@@YAPEAXPEAPEAD@Z
	.p2align	4, 0x90
"??$_Voidify_iter@PEAPEAD@std@@YAPEAXPEAPEAD@Z": # @"??$_Voidify_iter@PEAPEAD@std@@YAPEAXPEAPEAD@Z"
.seh_proc "??$_Voidify_iter@PEAPEAD@std@@YAPEAXPEAPEAD@Z"
# %bb.0:
	push	rax
	.seh_stackalloc 8
	.seh_endprologue
	mov	qword ptr [rsp], rcx
	mov	rax, qword ptr [rsp]
	pop	rcx
	ret
	.seh_endproc
                                        # -- End function
	.def	"??$visit_format_arg@AEBV<lambda_1>@?0??_Estimate_required_capacity@?$basic_format_args@V?$basic_format_context@V?$back_insert_iterator@V?$_Fmt_buffer@D@std@@@std@@D@std@@@std@@QEBA_KXZ@V?$basic_format_context@V?$back_insert_iterator@V?$_Fmt_buffer@D@std@@@std@@D@4@@std@@YA?A?<decltype-auto>@@AEBV<lambda_1>@?0??_Estimate_required_capacity@?$basic_format_args@V?$basic_format_context@V?$back_insert_iterator@V?$_Fmt_buffer@D@std@@@std@@D@std@@@0@QEBA_KXZ@V?$basic_format_arg@V?$basic_format_context@V?$back_insert_iterator@V?$_Fmt_buffer@D@std@@@std@@D@std@@@0@@Z";
	.scl	2;
	.type	32;
	.endef
	.section	.text,"xr",discard,"??$visit_format_arg@AEBV<lambda_1>@?0??_Estimate_required_capacity@?$basic_format_args@V?$basic_format_context@V?$back_insert_iterator@V?$_Fmt_buffer@D@std@@@std@@D@std@@@std@@QEBA_KXZ@V?$basic_format_context@V?$back_insert_iterator@V?$_Fmt_buffer@D@std@@@std@@D@4@@std@@YA?A?<decltype-auto>@@AEBV<lambda_1>@?0??_Estimate_required_capacity@?$basic_format_args@V?$basic_format_context@V?$back_insert_iterator@V?$_Fmt_buffer@D@std@@@std@@D@std@@@0@QEBA_KXZ@V?$basic_format_arg@V?$basic_format_context@V?$back_insert_iterator@V?$_Fmt_buffer@D@std@@@std@@D@std@@@0@@Z"
	.globl	"??$visit_format_arg@AEBV<lambda_1>@?0??_Estimate_required_capacity@?$basic_format_args@V?$basic_format_context@V?$back_insert_iterator@V?$_Fmt_buffer@D@std@@@std@@D@std@@@std@@QEBA_KXZ@V?$basic_format_context@V?$back_insert_iterator@V?$_Fmt_buffer@D@std@@@std@@D@4@@std@@YA?A?<decltype-auto>@@AEBV<lambda_1>@?0??_Estimate_required_capacity@?$basic_format_args@V?$basic_format_context@V?$back_insert_iterator@V?$_Fmt_buffer@D@std@@@std@@D@std@@@0@QEBA_KXZ@V?$basic_format_arg@V?$basic_format_context@V?$back_insert_iterator@V?$_Fmt_buffer@D@std@@@std@@D@std@@@0@@Z" # -- Begin function ??$visit_format_arg@AEBV<lambda_1>@?0??_Estimate_required_capacity@?$basic_format_args@V?$basic_format_context@V?$back_insert_iterator@V?$_Fmt_buffer@D@std@@@std@@D@std@@@std@@QEBA_KXZ@V?$basic_format_context@V?$back_insert_iterator@V?$_Fmt_buffer@D@std@@@std@@D@4@@std@@YA?A?<decltype-auto>@@AEBV<lambda_1>@?0??_Estimate_required_capacity@?$basic_format_args@V?$basic_format_context@V?$back_insert_iterator@V?$_Fmt_buffer@D@std@@@std@@D@std@@@0@QEBA_KXZ@V?$basic_format_arg@V?$basic_format_context@V?$back_insert_iterator@V?$_Fmt_buffer@D@std@@@std@@D@std@@@0@@Z
	.p2align	4, 0x90
"??$visit_format_arg@AEBV<lambda_1>@?0??_Estimate_required_capacity@?$basic_format_args@V?$basic_format_context@V?$back_insert_iterator@V?$_Fmt_buffer@D@std@@@std@@D@std@@@std@@QEBA_KXZ@V?$basic_format_context@V?$back_insert_iterator@V?$_Fmt_buffer@D@std@@@std@@D@4@@std@@YA?A?<decltype-auto>@@AEBV<lambda_1>@?0??_Estimate_required_capacity@?$basic_format_args@V?$basic_format_context@V?$back_insert_iterator@V?$_Fmt_buffer@D@std@@@std@@D@std@@@0@QEBA_KXZ@V?$basic_format_arg@V?$basic_format_context@V?$back_insert_iterator@V?$_Fmt_buffer@D@std@@@std@@D@std@@@0@@Z": # @"??$visit_format_arg@AEBV<lambda_1>@?0??_Estimate_required_capacity@?$basic_format_args@V?$basic_format_context@V?$back_insert_iterator@V?$_Fmt_buffer@D@std@@@std@@D@std@@@std@@QEBA_KXZ@V?$basic_format_context@V?$back_insert_iterator@V?$_Fmt_buffer@D@std@@@std@@D@4@@std@@YA?A?<decltype-auto>@@AEBV<lambda_1>@?0??_Estimate_required_capacity@?$basic_format_args@V?$basic_format_context@V?$back_insert_iterator@V?$_Fmt_buffer@D@std@@@std@@D@std@@@0@QEBA_KXZ@V?$basic_format_arg@V?$basic_format_context@V?$back_insert_iterator@V?$_Fmt_buffer@D@std@@@std@@D@std@@@0@@Z"
.seh_proc "??$visit_format_arg@AEBV<lambda_1>@?0??_Estimate_required_capacity@?$basic_format_args@V?$basic_format_context@V?$back_insert_iterator@V?$_Fmt_buffer@D@std@@@std@@D@std@@@std@@QEBA_KXZ@V?$basic_format_context@V?$back_insert_iterator@V?$_Fmt_buffer@D@std@@@std@@D@4@@std@@YA?A?<decltype-auto>@@AEBV<lambda_1>@?0??_Estimate_required_capacity@?$basic_format_args@V?$basic_format_context@V?$back_insert_iterator@V?$_Fmt_buffer@D@std@@@std@@D@std@@@0@QEBA_KXZ@V?$basic_format_arg@V?$basic_format_context@V?$back_insert_iterator@V?$_Fmt_buffer@D@std@@@std@@D@std@@@0@@Z"
# %bb.0:
	sub	rsp, 104
	.seh_stackalloc 104
	.seh_endprologue
	mov	qword ptr [rsp + 40], rdx       # 8-byte Spill
	mov	qword ptr [rsp + 96], rcx
	movzx	eax, byte ptr [rdx]
                                        # kill: def $rax killed $eax
	mov	qword ptr [rsp + 48], rax       # 8-byte Spill
	sub	rax, 13
	ja	.LBB121_15
# %bb.19:
	mov	rax, qword ptr [rsp + 48]       # 8-byte Reload
	lea	rcx, [rip + .LJTI121_0]
	movsxd	rax, dword ptr [rcx + 4*rax]
	add	rax, rcx
	jmp	rax
.LBB121_1:
	mov	rcx, qword ptr [rsp + 96]
	mov	dl, byte ptr [rsp + 88]
	call	"??$?RUmonostate@std@@@<lambda_1>@?0??_Estimate_required_capacity@?$basic_format_args@V?$basic_format_context@V?$back_insert_iterator@V?$_Fmt_buffer@D@std@@@std@@D@std@@@std@@QEBA_KXZ@QEBA?A?<auto>@@Umonostate@3@@Z"
	jmp	.LBB121_18
.LBB121_2:
	mov	rax, qword ptr [rsp + 40]       # 8-byte Reload
	mov	rcx, qword ptr [rsp + 96]
	mov	edx, dword ptr [rax + 8]
	call	"??$?RH@<lambda_1>@?0??_Estimate_required_capacity@?$basic_format_args@V?$basic_format_context@V?$back_insert_iterator@V?$_Fmt_buffer@D@std@@@std@@D@std@@@std@@QEBA_KXZ@QEBA?A?<auto>@@H@Z"
	jmp	.LBB121_18
.LBB121_3:
	mov	rax, qword ptr [rsp + 40]       # 8-byte Reload
	mov	rcx, qword ptr [rsp + 96]
	mov	edx, dword ptr [rax + 8]
	call	"??$?RI@<lambda_1>@?0??_Estimate_required_capacity@?$basic_format_args@V?$basic_format_context@V?$back_insert_iterator@V?$_Fmt_buffer@D@std@@@std@@D@std@@@std@@QEBA_KXZ@QEBA?A?<auto>@@I@Z"
	jmp	.LBB121_18
.LBB121_4:
	mov	rax, qword ptr [rsp + 40]       # 8-byte Reload
	mov	rcx, qword ptr [rsp + 96]
	mov	rdx, qword ptr [rax + 8]
	call	"??$?R_J@<lambda_1>@?0??_Estimate_required_capacity@?$basic_format_args@V?$basic_format_context@V?$back_insert_iterator@V?$_Fmt_buffer@D@std@@@std@@D@std@@@std@@QEBA_KXZ@QEBA?A?<auto>@@_J@Z"
	jmp	.LBB121_18
.LBB121_5:
	mov	rax, qword ptr [rsp + 40]       # 8-byte Reload
	mov	rcx, qword ptr [rsp + 96]
	mov	rdx, qword ptr [rax + 8]
	call	"??$?R_K@<lambda_1>@?0??_Estimate_required_capacity@?$basic_format_args@V?$basic_format_context@V?$back_insert_iterator@V?$_Fmt_buffer@D@std@@@std@@D@std@@@std@@QEBA_KXZ@QEBA?A?<auto>@@_K@Z"
	jmp	.LBB121_18
.LBB121_6:
	mov	rax, qword ptr [rsp + 40]       # 8-byte Reload
	mov	rcx, qword ptr [rsp + 96]
	mov	dl, byte ptr [rax + 8]
	and	dl, 1
	call	"??$?R_N@<lambda_1>@?0??_Estimate_required_capacity@?$basic_format_args@V?$basic_format_context@V?$back_insert_iterator@V?$_Fmt_buffer@D@std@@@std@@D@std@@@std@@QEBA_KXZ@QEBA?A?<auto>@@_N@Z"
	jmp	.LBB121_18
.LBB121_7:
	mov	rax, qword ptr [rsp + 40]       # 8-byte Reload
	mov	rcx, qword ptr [rsp + 96]
	mov	dl, byte ptr [rax + 8]
	call	"??$?RD@<lambda_1>@?0??_Estimate_required_capacity@?$basic_format_args@V?$basic_format_context@V?$back_insert_iterator@V?$_Fmt_buffer@D@std@@@std@@D@std@@@std@@QEBA_KXZ@QEBA?A?<auto>@@D@Z"
	jmp	.LBB121_18
.LBB121_8:
	mov	rax, qword ptr [rsp + 40]       # 8-byte Reload
	mov	rcx, qword ptr [rsp + 96]
	movss	xmm1, dword ptr [rax + 8]       # xmm1 = mem[0],zero,zero,zero
	call	"??$?RM@<lambda_1>@?0??_Estimate_required_capacity@?$basic_format_args@V?$basic_format_context@V?$back_insert_iterator@V?$_Fmt_buffer@D@std@@@std@@D@std@@@std@@QEBA_KXZ@QEBA?A?<auto>@@M@Z"
	jmp	.LBB121_18
.LBB121_9:
	mov	rax, qword ptr [rsp + 40]       # 8-byte Reload
	mov	rcx, qword ptr [rsp + 96]
	movsd	xmm1, qword ptr [rax + 8]       # xmm1 = mem[0],zero
	call	"??$?RN@<lambda_1>@?0??_Estimate_required_capacity@?$basic_format_args@V?$basic_format_context@V?$back_insert_iterator@V?$_Fmt_buffer@D@std@@@std@@D@std@@@std@@QEBA_KXZ@QEBA?A?<auto>@@N@Z"
	jmp	.LBB121_18
.LBB121_10:
	mov	rax, qword ptr [rsp + 40]       # 8-byte Reload
	mov	rcx, qword ptr [rsp + 96]
	movsd	xmm1, qword ptr [rax + 8]       # xmm1 = mem[0],zero
	call	"??$?RO@<lambda_1>@?0??_Estimate_required_capacity@?$basic_format_args@V?$basic_format_context@V?$back_insert_iterator@V?$_Fmt_buffer@D@std@@@std@@D@std@@@std@@QEBA_KXZ@QEBA?A?<auto>@@O@Z"
	jmp	.LBB121_18
.LBB121_11:
	mov	rax, qword ptr [rsp + 40]       # 8-byte Reload
	mov	rcx, qword ptr [rsp + 96]
	mov	rdx, qword ptr [rax + 8]
	call	"??$?RPEBX@<lambda_1>@?0??_Estimate_required_capacity@?$basic_format_args@V?$basic_format_context@V?$back_insert_iterator@V?$_Fmt_buffer@D@std@@@std@@D@std@@@std@@QEBA_KXZ@QEBA?A?<auto>@@QEBX@Z"
	jmp	.LBB121_18
.LBB121_12:
	mov	rax, qword ptr [rsp + 40]       # 8-byte Reload
	mov	rcx, qword ptr [rsp + 96]
	mov	rdx, qword ptr [rax + 8]
	call	"??$?RPEBD@<lambda_1>@?0??_Estimate_required_capacity@?$basic_format_args@V?$basic_format_context@V?$back_insert_iterator@V?$_Fmt_buffer@D@std@@@std@@D@std@@@std@@QEBA_KXZ@QEBA?A?<auto>@@QEBD@Z"
	jmp	.LBB121_18
.LBB121_13:
	mov	rax, qword ptr [rsp + 40]       # 8-byte Reload
	mov	rcx, qword ptr [rsp + 96]
	mov	rdx, qword ptr [rax + 8]
	mov	qword ptr [rsp + 72], rdx
	mov	rax, qword ptr [rax + 16]
	mov	qword ptr [rsp + 80], rax
	lea	rdx, [rsp + 72]
	call	"??$?RV?$basic_string_view@DU?$char_traits@D@std@@@std@@@<lambda_1>@?0??_Estimate_required_capacity@?$basic_format_args@V?$basic_format_context@V?$back_insert_iterator@V?$_Fmt_buffer@D@std@@@std@@D@std@@@std@@QEBA_KXZ@QEBA?A?<auto>@@V?$basic_string_view@DU?$char_traits@D@std@@@3@@Z"
	jmp	.LBB121_18
.LBB121_14:
	mov	rax, qword ptr [rsp + 40]       # 8-byte Reload
	mov	rcx, qword ptr [rsp + 96]
	mov	rdx, qword ptr [rax + 8]
	mov	qword ptr [rsp + 56], rdx
	mov	rax, qword ptr [rax + 16]
	mov	qword ptr [rsp + 64], rax
	lea	rdx, [rsp + 56]
	call	"??$?RVhandle@?$basic_format_arg@V?$basic_format_context@V?$back_insert_iterator@V?$_Fmt_buffer@D@std@@@std@@D@std@@@std@@@<lambda_1>@?0??_Estimate_required_capacity@?$basic_format_args@V?$basic_format_context@V?$back_insert_iterator@V?$_Fmt_buffer@D@std@@@std@@D@std@@@std@@QEBA_KXZ@QEBA?A?<auto>@@Vhandle@?$basic_format_arg@V?$basic_format_context@V?$back_insert_iterator@V?$_Fmt_buffer@D@std@@@std@@D@std@@@3@@Z"
	jmp	.LBB121_18
.LBB121_15:
	jmp	.LBB121_16
.LBB121_16:
	jmp	.LBB121_17
.LBB121_17:
	call	_invalid_parameter_noinfo_noreturn
.LBB121_18:
	nop
	add	rsp, 104
	ret
	.p2align	2, 0x90
.LJTI121_0:
	.long	.LBB121_1-.LJTI121_0
	.long	.LBB121_2-.LJTI121_0
	.long	.LBB121_3-.LJTI121_0
	.long	.LBB121_4-.LJTI121_0
	.long	.LBB121_5-.LJTI121_0
	.long	.LBB121_6-.LJTI121_0
	.long	.LBB121_7-.LJTI121_0
	.long	.LBB121_8-.LJTI121_0
	.long	.LBB121_9-.LJTI121_0
	.long	.LBB121_10-.LJTI121_0
	.long	.LBB121_11-.LJTI121_0
	.long	.LBB121_12-.LJTI121_0
	.long	.LBB121_13-.LJTI121_0
	.long	.LBB121_14-.LJTI121_0
	.seh_endproc
                                        # -- End function
	.def	"?get@?$basic_format_args@V?$basic_format_context@V?$back_insert_iterator@V?$_Fmt_buffer@D@std@@@std@@D@std@@@std@@QEBA?AV?$basic_format_arg@V?$basic_format_context@V?$back_insert_iterator@V?$_Fmt_buffer@D@std@@@std@@D@std@@@2@_K@Z";
	.scl	2;
	.type	32;
	.endef
	.section	.text,"xr",discard,"?get@?$basic_format_args@V?$basic_format_context@V?$back_insert_iterator@V?$_Fmt_buffer@D@std@@@std@@D@std@@@std@@QEBA?AV?$basic_format_arg@V?$basic_format_context@V?$back_insert_iterator@V?$_Fmt_buffer@D@std@@@std@@D@std@@@2@_K@Z"
	.globl	"?get@?$basic_format_args@V?$basic_format_context@V?$back_insert_iterator@V?$_Fmt_buffer@D@std@@@std@@D@std@@@std@@QEBA?AV?$basic_format_arg@V?$basic_format_context@V?$back_insert_iterator@V?$_Fmt_buffer@D@std@@@std@@D@std@@@2@_K@Z" # -- Begin function ?get@?$basic_format_args@V?$basic_format_context@V?$back_insert_iterator@V?$_Fmt_buffer@D@std@@@std@@D@std@@@std@@QEBA?AV?$basic_format_arg@V?$basic_format_context@V?$back_insert_iterator@V?$_Fmt_buffer@D@std@@@std@@D@std@@@2@_K@Z
	.p2align	4, 0x90
"?get@?$basic_format_args@V?$basic_format_context@V?$back_insert_iterator@V?$_Fmt_buffer@D@std@@@std@@D@std@@@std@@QEBA?AV?$basic_format_arg@V?$basic_format_context@V?$back_insert_iterator@V?$_Fmt_buffer@D@std@@@std@@D@std@@@2@_K@Z": # @"?get@?$basic_format_args@V?$basic_format_context@V?$back_insert_iterator@V?$_Fmt_buffer@D@std@@@std@@D@std@@@std@@QEBA?AV?$basic_format_arg@V?$basic_format_context@V?$back_insert_iterator@V?$_Fmt_buffer@D@std@@@std@@D@std@@@2@_K@Z"
.seh_proc "?get@?$basic_format_args@V?$basic_format_context@V?$back_insert_iterator@V?$_Fmt_buffer@D@std@@@std@@D@std@@@std@@QEBA?AV?$basic_format_arg@V?$basic_format_context@V?$back_insert_iterator@V?$_Fmt_buffer@D@std@@@std@@D@std@@@2@_K@Z"
# %bb.0:
	sub	rsp, 136
	.seh_stackalloc 136
	.seh_endprologue
	mov	qword ptr [rsp + 40], rdx       # 8-byte Spill
	mov	rax, rdx
	mov	qword ptr [rsp + 48], rax       # 8-byte Spill
	mov	qword ptr [rsp + 128], rdx
	mov	qword ptr [rsp + 120], r8
	mov	qword ptr [rsp + 112], rcx
	mov	rcx, qword ptr [rsp + 112]
	mov	qword ptr [rsp + 56], rcx       # 8-byte Spill
	mov	rax, qword ptr [rsp + 120]
	cmp	rax, qword ptr [rcx]
	jb	.LBB122_2
# %bb.1:
	mov	rcx, qword ptr [rsp + 40]       # 8-byte Reload
	call	"??0?$basic_format_arg@V?$basic_format_context@V?$back_insert_iterator@V?$_Fmt_buffer@D@std@@@std@@D@std@@@std@@QEAA@XZ"
	jmp	.LBB122_18
.LBB122_2:
	mov	rax, qword ptr [rsp + 56]       # 8-byte Reload
	mov	rcx, qword ptr [rax + 8]
	mov	rdx, qword ptr [rsp + 120]
	mov	rcx, qword ptr [rcx + 8*rdx]
	mov	qword ptr [rsp + 104], rcx
	mov	rcx, qword ptr [rax]
	mov	rax, qword ptr [rax + 8]
	lea	rax, [rax + 8*rcx]
	mov	rcx, qword ptr [rsp + 104]
	movabs	rdx, 1152921504606846975
	and	rcx, rdx
	add	rax, rcx
	mov	qword ptr [rsp + 96], rax
	lea	rcx, [rsp + 104]
	call	"?_Type@_Format_arg_index@std@@QEBA?AW4_Basic_format_arg_type@2@XZ"
	movzx	ecx, al
                                        # kill: def $rcx killed $ecx
	mov	qword ptr [rsp + 32], rcx       # 8-byte Spill
	sub	al, 13
	ja	.LBB122_4
# %bb.19:
	mov	rax, qword ptr [rsp + 32]       # 8-byte Reload
	lea	rcx, [rip + .LJTI122_0]
	movsxd	rax, dword ptr [rcx + 4*rax]
	add	rax, rcx
	jmp	rax
.LBB122_3:
	jmp	.LBB122_4
.LBB122_4:
	mov	rcx, qword ptr [rsp + 40]       # 8-byte Reload
	call	"??0?$basic_format_arg@V?$basic_format_context@V?$back_insert_iterator@V?$_Fmt_buffer@D@std@@@std@@D@std@@@std@@QEAA@XZ"
	jmp	.LBB122_18
.LBB122_5:
	mov	rcx, qword ptr [rsp + 96]
	call	"??$_Get_value_from_memory@H@?$basic_format_args@V?$basic_format_context@V?$back_insert_iterator@V?$_Fmt_buffer@D@std@@@std@@D@std@@@std@@CA?A?<auto>@@QEBE@Z"
	mov	rcx, qword ptr [rsp + 40]       # 8-byte Reload
	mov	edx, eax
	call	"??0?$basic_format_arg@V?$basic_format_context@V?$back_insert_iterator@V?$_Fmt_buffer@D@std@@@std@@D@std@@@std@@QEAA@H@Z"
	jmp	.LBB122_18
.LBB122_6:
	mov	rcx, qword ptr [rsp + 96]
	call	"??$_Get_value_from_memory@I@?$basic_format_args@V?$basic_format_context@V?$back_insert_iterator@V?$_Fmt_buffer@D@std@@@std@@D@std@@@std@@CA?A?<auto>@@QEBE@Z"
	mov	rcx, qword ptr [rsp + 40]       # 8-byte Reload
	mov	edx, eax
	call	"??0?$basic_format_arg@V?$basic_format_context@V?$back_insert_iterator@V?$_Fmt_buffer@D@std@@@std@@D@std@@@std@@QEAA@I@Z"
	jmp	.LBB122_18
.LBB122_7:
	mov	rcx, qword ptr [rsp + 96]
	call	"??$_Get_value_from_memory@_J@?$basic_format_args@V?$basic_format_context@V?$back_insert_iterator@V?$_Fmt_buffer@D@std@@@std@@D@std@@@std@@CA?A?<auto>@@QEBE@Z"
	mov	rcx, qword ptr [rsp + 40]       # 8-byte Reload
	mov	rdx, rax
	call	"??0?$basic_format_arg@V?$basic_format_context@V?$back_insert_iterator@V?$_Fmt_buffer@D@std@@@std@@D@std@@@std@@QEAA@_J@Z"
	jmp	.LBB122_18
.LBB122_8:
	mov	rcx, qword ptr [rsp + 96]
	call	"??$_Get_value_from_memory@_K@?$basic_format_args@V?$basic_format_context@V?$back_insert_iterator@V?$_Fmt_buffer@D@std@@@std@@D@std@@@std@@CA?A?<auto>@@QEBE@Z"
	mov	rcx, qword ptr [rsp + 40]       # 8-byte Reload
	mov	rdx, rax
	call	"??0?$basic_format_arg@V?$basic_format_context@V?$back_insert_iterator@V?$_Fmt_buffer@D@std@@@std@@D@std@@@std@@QEAA@_K@Z"
	jmp	.LBB122_18
.LBB122_9:
	mov	rcx, qword ptr [rsp + 96]
	call	"??$_Get_value_from_memory@_N@?$basic_format_args@V?$basic_format_context@V?$back_insert_iterator@V?$_Fmt_buffer@D@std@@@std@@D@std@@@std@@CA?A?<auto>@@QEBE@Z"
	mov	rcx, qword ptr [rsp + 40]       # 8-byte Reload
	mov	dl, al
	and	dl, 1
	call	"??0?$basic_format_arg@V?$basic_format_context@V?$back_insert_iterator@V?$_Fmt_buffer@D@std@@@std@@D@std@@@std@@QEAA@_N@Z"
	jmp	.LBB122_18
.LBB122_10:
	mov	rcx, qword ptr [rsp + 96]
	call	"??$_Get_value_from_memory@D@?$basic_format_args@V?$basic_format_context@V?$back_insert_iterator@V?$_Fmt_buffer@D@std@@@std@@D@std@@@std@@CA?A?<auto>@@QEBE@Z"
	mov	rcx, qword ptr [rsp + 40]       # 8-byte Reload
	mov	dl, al
	call	"??0?$basic_format_arg@V?$basic_format_context@V?$back_insert_iterator@V?$_Fmt_buffer@D@std@@@std@@D@std@@@std@@QEAA@D@Z"
	jmp	.LBB122_18
.LBB122_11:
	mov	rcx, qword ptr [rsp + 96]
	call	"??$_Get_value_from_memory@M@?$basic_format_args@V?$basic_format_context@V?$back_insert_iterator@V?$_Fmt_buffer@D@std@@@std@@D@std@@@std@@CA?A?<auto>@@QEBE@Z"
	mov	rcx, qword ptr [rsp + 40]       # 8-byte Reload
	movaps	xmm1, xmm0
	call	"??0?$basic_format_arg@V?$basic_format_context@V?$back_insert_iterator@V?$_Fmt_buffer@D@std@@@std@@D@std@@@std@@QEAA@M@Z"
	jmp	.LBB122_18
.LBB122_12:
	mov	rcx, qword ptr [rsp + 96]
	call	"??$_Get_value_from_memory@N@?$basic_format_args@V?$basic_format_context@V?$back_insert_iterator@V?$_Fmt_buffer@D@std@@@std@@D@std@@@std@@CA?A?<auto>@@QEBE@Z"
	mov	rcx, qword ptr [rsp + 40]       # 8-byte Reload
	movaps	xmm1, xmm0
	call	"??0?$basic_format_arg@V?$basic_format_context@V?$back_insert_iterator@V?$_Fmt_buffer@D@std@@@std@@D@std@@@std@@QEAA@N@Z"
	jmp	.LBB122_18
.LBB122_13:
	mov	rcx, qword ptr [rsp + 96]
	call	"??$_Get_value_from_memory@O@?$basic_format_args@V?$basic_format_context@V?$back_insert_iterator@V?$_Fmt_buffer@D@std@@@std@@D@std@@@std@@CA?A?<auto>@@QEBE@Z"
	mov	rcx, qword ptr [rsp + 40]       # 8-byte Reload
	movaps	xmm1, xmm0
	call	"??0?$basic_format_arg@V?$basic_format_context@V?$back_insert_iterator@V?$_Fmt_buffer@D@std@@@std@@D@std@@@std@@QEAA@O@Z"
	jmp	.LBB122_18
.LBB122_14:
	mov	rcx, qword ptr [rsp + 96]
	call	"??$_Get_value_from_memory@PEBX@?$basic_format_args@V?$basic_format_context@V?$back_insert_iterator@V?$_Fmt_buffer@D@std@@@std@@D@std@@@std@@CA?A?<auto>@@QEBE@Z"
	mov	rcx, qword ptr [rsp + 40]       # 8-byte Reload
	mov	rdx, rax
	call	"??0?$basic_format_arg@V?$basic_format_context@V?$back_insert_iterator@V?$_Fmt_buffer@D@std@@@std@@D@std@@@std@@QEAA@PEBX@Z"
	jmp	.LBB122_18
.LBB122_15:
	mov	rcx, qword ptr [rsp + 96]
	call	"??$_Get_value_from_memory@PEBD@?$basic_format_args@V?$basic_format_context@V?$back_insert_iterator@V?$_Fmt_buffer@D@std@@@std@@D@std@@@std@@CA?A?<auto>@@QEBE@Z"
	mov	rcx, qword ptr [rsp + 40]       # 8-byte Reload
	mov	rdx, rax
	call	"??0?$basic_format_arg@V?$basic_format_context@V?$back_insert_iterator@V?$_Fmt_buffer@D@std@@@std@@D@std@@@std@@QEAA@PEBD@Z"
	jmp	.LBB122_18
.LBB122_16:
	mov	rdx, qword ptr [rsp + 96]
	lea	rcx, [rsp + 80]
	call	"??$_Get_value_from_memory@V?$basic_string_view@DU?$char_traits@D@std@@@std@@@?$basic_format_args@V?$basic_format_context@V?$back_insert_iterator@V?$_Fmt_buffer@D@std@@@std@@D@std@@@std@@CA?A?<auto>@@QEBE@Z"
	mov	rcx, qword ptr [rsp + 40]       # 8-byte Reload
	lea	rdx, [rsp + 80]
	call	"??0?$basic_format_arg@V?$basic_format_context@V?$back_insert_iterator@V?$_Fmt_buffer@D@std@@@std@@D@std@@@std@@QEAA@V?$basic_string_view@DU?$char_traits@D@std@@@1@@Z"
	jmp	.LBB122_18
.LBB122_17:
	mov	rdx, qword ptr [rsp + 96]
	lea	rcx, [rsp + 64]
	call	"??$_Get_value_from_memory@Vhandle@?$basic_format_arg@V?$basic_format_context@V?$back_insert_iterator@V?$_Fmt_buffer@D@std@@@std@@D@std@@@std@@@?$basic_format_args@V?$basic_format_context@V?$back_insert_iterator@V?$_Fmt_buffer@D@std@@@std@@D@std@@@std@@CA?A?<auto>@@QEBE@Z"
	mov	rcx, qword ptr [rsp + 40]       # 8-byte Reload
	lea	rdx, [rsp + 64]
	call	"??0?$basic_format_arg@V?$basic_format_context@V?$back_insert_iterator@V?$_Fmt_buffer@D@std@@@std@@D@std@@@std@@QEAA@Vhandle@01@@Z"
.LBB122_18:
	mov	rax, qword ptr [rsp + 48]       # 8-byte Reload
	add	rsp, 136
	ret
	.p2align	2, 0x90
.LJTI122_0:
	.long	.LBB122_3-.LJTI122_0
	.long	.LBB122_5-.LJTI122_0
	.long	.LBB122_6-.LJTI122_0
	.long	.LBB122_7-.LJTI122_0
	.long	.LBB122_8-.LJTI122_0
	.long	.LBB122_9-.LJTI122_0
	.long	.LBB122_10-.LJTI122_0
	.long	.LBB122_11-.LJTI122_0
	.long	.LBB122_12-.LJTI122_0
	.long	.LBB122_13-.LJTI122_0
	.long	.LBB122_14-.LJTI122_0
	.long	.LBB122_15-.LJTI122_0
	.long	.LBB122_16-.LJTI122_0
	.long	.LBB122_17-.LJTI122_0
	.seh_endproc
                                        # -- End function
	.def	"??$?RUmonostate@std@@@<lambda_1>@?0??_Estimate_required_capacity@?$basic_format_args@V?$basic_format_context@V?$back_insert_iterator@V?$_Fmt_buffer@D@std@@@std@@D@std@@@std@@QEBA_KXZ@QEBA?A?<auto>@@Umonostate@3@@Z";
	.scl	2;
	.type	32;
	.endef
	.section	.text,"xr",discard,"??$?RUmonostate@std@@@<lambda_1>@?0??_Estimate_required_capacity@?$basic_format_args@V?$basic_format_context@V?$back_insert_iterator@V?$_Fmt_buffer@D@std@@@std@@D@std@@@std@@QEBA_KXZ@QEBA?A?<auto>@@Umonostate@3@@Z"
	.globl	"??$?RUmonostate@std@@@<lambda_1>@?0??_Estimate_required_capacity@?$basic_format_args@V?$basic_format_context@V?$back_insert_iterator@V?$_Fmt_buffer@D@std@@@std@@D@std@@@std@@QEBA_KXZ@QEBA?A?<auto>@@Umonostate@3@@Z" # -- Begin function ??$?RUmonostate@std@@@<lambda_1>@?0??_Estimate_required_capacity@?$basic_format_args@V?$basic_format_context@V?$back_insert_iterator@V?$_Fmt_buffer@D@std@@@std@@D@std@@@std@@QEBA_KXZ@QEBA?A?<auto>@@Umonostate@3@@Z
	.p2align	4, 0x90
"??$?RUmonostate@std@@@<lambda_1>@?0??_Estimate_required_capacity@?$basic_format_args@V?$basic_format_context@V?$back_insert_iterator@V?$_Fmt_buffer@D@std@@@std@@D@std@@@std@@QEBA_KXZ@QEBA?A?<auto>@@Umonostate@3@@Z": # @"??$?RUmonostate@std@@@<lambda_1>@?0??_Estimate_required_capacity@?$basic_format_args@V?$basic_format_context@V?$back_insert_iterator@V?$_Fmt_buffer@D@std@@@std@@D@std@@@std@@QEBA_KXZ@QEBA?A?<auto>@@Umonostate@3@@Z"
.seh_proc "??$?RUmonostate@std@@@<lambda_1>@?0??_Estimate_required_capacity@?$basic_format_args@V?$basic_format_context@V?$back_insert_iterator@V?$_Fmt_buffer@D@std@@@std@@D@std@@@std@@QEBA_KXZ@QEBA?A?<auto>@@Umonostate@3@@Z"
# %bb.0:
	sub	rsp, 16
	.seh_stackalloc 16
	.seh_endprologue
	mov	byte ptr [rsp + 8], dl
	mov	qword ptr [rsp], rcx
	mov	rax, qword ptr [rsp]
	mov	rax, qword ptr [rax]
	mov	rcx, qword ptr [rax]
	add	rcx, 8
	mov	qword ptr [rax], rcx
	add	rsp, 16
	ret
	.seh_endproc
                                        # -- End function
	.def	"??$?RH@<lambda_1>@?0??_Estimate_required_capacity@?$basic_format_args@V?$basic_format_context@V?$back_insert_iterator@V?$_Fmt_buffer@D@std@@@std@@D@std@@@std@@QEBA_KXZ@QEBA?A?<auto>@@H@Z";
	.scl	2;
	.type	32;
	.endef
	.section	.text,"xr",discard,"??$?RH@<lambda_1>@?0??_Estimate_required_capacity@?$basic_format_args@V?$basic_format_context@V?$back_insert_iterator@V?$_Fmt_buffer@D@std@@@std@@D@std@@@std@@QEBA_KXZ@QEBA?A?<auto>@@H@Z"
	.globl	"??$?RH@<lambda_1>@?0??_Estimate_required_capacity@?$basic_format_args@V?$basic_format_context@V?$back_insert_iterator@V?$_Fmt_buffer@D@std@@@std@@D@std@@@std@@QEBA_KXZ@QEBA?A?<auto>@@H@Z" # -- Begin function ??$?RH@<lambda_1>@?0??_Estimate_required_capacity@?$basic_format_args@V?$basic_format_context@V?$back_insert_iterator@V?$_Fmt_buffer@D@std@@@std@@D@std@@@std@@QEBA_KXZ@QEBA?A?<auto>@@H@Z
	.p2align	4, 0x90
"??$?RH@<lambda_1>@?0??_Estimate_required_capacity@?$basic_format_args@V?$basic_format_context@V?$back_insert_iterator@V?$_Fmt_buffer@D@std@@@std@@D@std@@@std@@QEBA_KXZ@QEBA?A?<auto>@@H@Z": # @"??$?RH@<lambda_1>@?0??_Estimate_required_capacity@?$basic_format_args@V?$basic_format_context@V?$back_insert_iterator@V?$_Fmt_buffer@D@std@@@std@@D@std@@@std@@QEBA_KXZ@QEBA?A?<auto>@@H@Z"
.seh_proc "??$?RH@<lambda_1>@?0??_Estimate_required_capacity@?$basic_format_args@V?$basic_format_context@V?$back_insert_iterator@V?$_Fmt_buffer@D@std@@@std@@D@std@@@std@@QEBA_KXZ@QEBA?A?<auto>@@H@Z"
# %bb.0:
	sub	rsp, 16
	.seh_stackalloc 16
	.seh_endprologue
	mov	dword ptr [rsp + 12], edx
	mov	qword ptr [rsp], rcx
	mov	rax, qword ptr [rsp]
	mov	rax, qword ptr [rax]
	mov	rcx, qword ptr [rax]
	add	rcx, 8
	mov	qword ptr [rax], rcx
	add	rsp, 16
	ret
	.seh_endproc
                                        # -- End function
	.def	"??$?RI@<lambda_1>@?0??_Estimate_required_capacity@?$basic_format_args@V?$basic_format_context@V?$back_insert_iterator@V?$_Fmt_buffer@D@std@@@std@@D@std@@@std@@QEBA_KXZ@QEBA?A?<auto>@@I@Z";
	.scl	2;
	.type	32;
	.endef
	.section	.text,"xr",discard,"??$?RI@<lambda_1>@?0??_Estimate_required_capacity@?$basic_format_args@V?$basic_format_context@V?$back_insert_iterator@V?$_Fmt_buffer@D@std@@@std@@D@std@@@std@@QEBA_KXZ@QEBA?A?<auto>@@I@Z"
	.globl	"??$?RI@<lambda_1>@?0??_Estimate_required_capacity@?$basic_format_args@V?$basic_format_context@V?$back_insert_iterator@V?$_Fmt_buffer@D@std@@@std@@D@std@@@std@@QEBA_KXZ@QEBA?A?<auto>@@I@Z" # -- Begin function ??$?RI@<lambda_1>@?0??_Estimate_required_capacity@?$basic_format_args@V?$basic_format_context@V?$back_insert_iterator@V?$_Fmt_buffer@D@std@@@std@@D@std@@@std@@QEBA_KXZ@QEBA?A?<auto>@@I@Z
	.p2align	4, 0x90
"??$?RI@<lambda_1>@?0??_Estimate_required_capacity@?$basic_format_args@V?$basic_format_context@V?$back_insert_iterator@V?$_Fmt_buffer@D@std@@@std@@D@std@@@std@@QEBA_KXZ@QEBA?A?<auto>@@I@Z": # @"??$?RI@<lambda_1>@?0??_Estimate_required_capacity@?$basic_format_args@V?$basic_format_context@V?$back_insert_iterator@V?$_Fmt_buffer@D@std@@@std@@D@std@@@std@@QEBA_KXZ@QEBA?A?<auto>@@I@Z"
.seh_proc "??$?RI@<lambda_1>@?0??_Estimate_required_capacity@?$basic_format_args@V?$basic_format_context@V?$back_insert_iterator@V?$_Fmt_buffer@D@std@@@std@@D@std@@@std@@QEBA_KXZ@QEBA?A?<auto>@@I@Z"
# %bb.0:
	sub	rsp, 16
	.seh_stackalloc 16
	.seh_endprologue
	mov	dword ptr [rsp + 12], edx
	mov	qword ptr [rsp], rcx
	mov	rax, qword ptr [rsp]
	mov	rax, qword ptr [rax]
	mov	rcx, qword ptr [rax]
	add	rcx, 8
	mov	qword ptr [rax], rcx
	add	rsp, 16
	ret
	.seh_endproc
                                        # -- End function
	.def	"??$?R_J@<lambda_1>@?0??_Estimate_required_capacity@?$basic_format_args@V?$basic_format_context@V?$back_insert_iterator@V?$_Fmt_buffer@D@std@@@std@@D@std@@@std@@QEBA_KXZ@QEBA?A?<auto>@@_J@Z";
	.scl	2;
	.type	32;
	.endef
	.section	.text,"xr",discard,"??$?R_J@<lambda_1>@?0??_Estimate_required_capacity@?$basic_format_args@V?$basic_format_context@V?$back_insert_iterator@V?$_Fmt_buffer@D@std@@@std@@D@std@@@std@@QEBA_KXZ@QEBA?A?<auto>@@_J@Z"
	.globl	"??$?R_J@<lambda_1>@?0??_Estimate_required_capacity@?$basic_format_args@V?$basic_format_context@V?$back_insert_iterator@V?$_Fmt_buffer@D@std@@@std@@D@std@@@std@@QEBA_KXZ@QEBA?A?<auto>@@_J@Z" # -- Begin function ??$?R_J@<lambda_1>@?0??_Estimate_required_capacity@?$basic_format_args@V?$basic_format_context@V?$back_insert_iterator@V?$_Fmt_buffer@D@std@@@std@@D@std@@@std@@QEBA_KXZ@QEBA?A?<auto>@@_J@Z
	.p2align	4, 0x90
"??$?R_J@<lambda_1>@?0??_Estimate_required_capacity@?$basic_format_args@V?$basic_format_context@V?$back_insert_iterator@V?$_Fmt_buffer@D@std@@@std@@D@std@@@std@@QEBA_KXZ@QEBA?A?<auto>@@_J@Z": # @"??$?R_J@<lambda_1>@?0??_Estimate_required_capacity@?$basic_format_args@V?$basic_format_context@V?$back_insert_iterator@V?$_Fmt_buffer@D@std@@@std@@D@std@@@std@@QEBA_KXZ@QEBA?A?<auto>@@_J@Z"
.seh_proc "??$?R_J@<lambda_1>@?0??_Estimate_required_capacity@?$basic_format_args@V?$basic_format_context@V?$back_insert_iterator@V?$_Fmt_buffer@D@std@@@std@@D@std@@@std@@QEBA_KXZ@QEBA?A?<auto>@@_J@Z"
# %bb.0:
	sub	rsp, 16
	.seh_stackalloc 16
	.seh_endprologue
	mov	qword ptr [rsp + 8], rdx
	mov	qword ptr [rsp], rcx
	mov	rax, qword ptr [rsp]
	mov	rax, qword ptr [rax]
	mov	rcx, qword ptr [rax]
	add	rcx, 8
	mov	qword ptr [rax], rcx
	add	rsp, 16
	ret
	.seh_endproc
                                        # -- End function
	.def	"??$?R_K@<lambda_1>@?0??_Estimate_required_capacity@?$basic_format_args@V?$basic_format_context@V?$back_insert_iterator@V?$_Fmt_buffer@D@std@@@std@@D@std@@@std@@QEBA_KXZ@QEBA?A?<auto>@@_K@Z";
	.scl	2;
	.type	32;
	.endef
	.section	.text,"xr",discard,"??$?R_K@<lambda_1>@?0??_Estimate_required_capacity@?$basic_format_args@V?$basic_format_context@V?$back_insert_iterator@V?$_Fmt_buffer@D@std@@@std@@D@std@@@std@@QEBA_KXZ@QEBA?A?<auto>@@_K@Z"
	.globl	"??$?R_K@<lambda_1>@?0??_Estimate_required_capacity@?$basic_format_args@V?$basic_format_context@V?$back_insert_iterator@V?$_Fmt_buffer@D@std@@@std@@D@std@@@std@@QEBA_KXZ@QEBA?A?<auto>@@_K@Z" # -- Begin function ??$?R_K@<lambda_1>@?0??_Estimate_required_capacity@?$basic_format_args@V?$basic_format_context@V?$back_insert_iterator@V?$_Fmt_buffer@D@std@@@std@@D@std@@@std@@QEBA_KXZ@QEBA?A?<auto>@@_K@Z
	.p2align	4, 0x90
"??$?R_K@<lambda_1>@?0??_Estimate_required_capacity@?$basic_format_args@V?$basic_format_context@V?$back_insert_iterator@V?$_Fmt_buffer@D@std@@@std@@D@std@@@std@@QEBA_KXZ@QEBA?A?<auto>@@_K@Z": # @"??$?R_K@<lambda_1>@?0??_Estimate_required_capacity@?$basic_format_args@V?$basic_format_context@V?$back_insert_iterator@V?$_Fmt_buffer@D@std@@@std@@D@std@@@std@@QEBA_KXZ@QEBA?A?<auto>@@_K@Z"
.seh_proc "??$?R_K@<lambda_1>@?0??_Estimate_required_capacity@?$basic_format_args@V?$basic_format_context@V?$back_insert_iterator@V?$_Fmt_buffer@D@std@@@std@@D@std@@@std@@QEBA_KXZ@QEBA?A?<auto>@@_K@Z"
# %bb.0:
	sub	rsp, 16
	.seh_stackalloc 16
	.seh_endprologue
	mov	qword ptr [rsp + 8], rdx
	mov	qword ptr [rsp], rcx
	mov	rax, qword ptr [rsp]
	mov	rax, qword ptr [rax]
	mov	rcx, qword ptr [rax]
	add	rcx, 8
	mov	qword ptr [rax], rcx
	add	rsp, 16
	ret
	.seh_endproc
                                        # -- End function
	.def	"??$?R_N@<lambda_1>@?0??_Estimate_required_capacity@?$basic_format_args@V?$basic_format_context@V?$back_insert_iterator@V?$_Fmt_buffer@D@std@@@std@@D@std@@@std@@QEBA_KXZ@QEBA?A?<auto>@@_N@Z";
	.scl	2;
	.type	32;
	.endef
	.section	.text,"xr",discard,"??$?R_N@<lambda_1>@?0??_Estimate_required_capacity@?$basic_format_args@V?$basic_format_context@V?$back_insert_iterator@V?$_Fmt_buffer@D@std@@@std@@D@std@@@std@@QEBA_KXZ@QEBA?A?<auto>@@_N@Z"
	.globl	"??$?R_N@<lambda_1>@?0??_Estimate_required_capacity@?$basic_format_args@V?$basic_format_context@V?$back_insert_iterator@V?$_Fmt_buffer@D@std@@@std@@D@std@@@std@@QEBA_KXZ@QEBA?A?<auto>@@_N@Z" # -- Begin function ??$?R_N@<lambda_1>@?0??_Estimate_required_capacity@?$basic_format_args@V?$basic_format_context@V?$back_insert_iterator@V?$_Fmt_buffer@D@std@@@std@@D@std@@@std@@QEBA_KXZ@QEBA?A?<auto>@@_N@Z
	.p2align	4, 0x90
"??$?R_N@<lambda_1>@?0??_Estimate_required_capacity@?$basic_format_args@V?$basic_format_context@V?$back_insert_iterator@V?$_Fmt_buffer@D@std@@@std@@D@std@@@std@@QEBA_KXZ@QEBA?A?<auto>@@_N@Z": # @"??$?R_N@<lambda_1>@?0??_Estimate_required_capacity@?$basic_format_args@V?$basic_format_context@V?$back_insert_iterator@V?$_Fmt_buffer@D@std@@@std@@D@std@@@std@@QEBA_KXZ@QEBA?A?<auto>@@_N@Z"
.seh_proc "??$?R_N@<lambda_1>@?0??_Estimate_required_capacity@?$basic_format_args@V?$basic_format_context@V?$back_insert_iterator@V?$_Fmt_buffer@D@std@@@std@@D@std@@@std@@QEBA_KXZ@QEBA?A?<auto>@@_N@Z"
# %bb.0:
	sub	rsp, 16
	.seh_stackalloc 16
	.seh_endprologue
	and	dl, 1
	mov	byte ptr [rsp + 15], dl
	mov	qword ptr [rsp], rcx
	mov	rax, qword ptr [rsp]
	mov	rax, qword ptr [rax]
	mov	rcx, qword ptr [rax]
	add	rcx, 8
	mov	qword ptr [rax], rcx
	add	rsp, 16
	ret
	.seh_endproc
                                        # -- End function
	.def	"??$?RD@<lambda_1>@?0??_Estimate_required_capacity@?$basic_format_args@V?$basic_format_context@V?$back_insert_iterator@V?$_Fmt_buffer@D@std@@@std@@D@std@@@std@@QEBA_KXZ@QEBA?A?<auto>@@D@Z";
	.scl	2;
	.type	32;
	.endef
	.section	.text,"xr",discard,"??$?RD@<lambda_1>@?0??_Estimate_required_capacity@?$basic_format_args@V?$basic_format_context@V?$back_insert_iterator@V?$_Fmt_buffer@D@std@@@std@@D@std@@@std@@QEBA_KXZ@QEBA?A?<auto>@@D@Z"
	.globl	"??$?RD@<lambda_1>@?0??_Estimate_required_capacity@?$basic_format_args@V?$basic_format_context@V?$back_insert_iterator@V?$_Fmt_buffer@D@std@@@std@@D@std@@@std@@QEBA_KXZ@QEBA?A?<auto>@@D@Z" # -- Begin function ??$?RD@<lambda_1>@?0??_Estimate_required_capacity@?$basic_format_args@V?$basic_format_context@V?$back_insert_iterator@V?$_Fmt_buffer@D@std@@@std@@D@std@@@std@@QEBA_KXZ@QEBA?A?<auto>@@D@Z
	.p2align	4, 0x90
"??$?RD@<lambda_1>@?0??_Estimate_required_capacity@?$basic_format_args@V?$basic_format_context@V?$back_insert_iterator@V?$_Fmt_buffer@D@std@@@std@@D@std@@@std@@QEBA_KXZ@QEBA?A?<auto>@@D@Z": # @"??$?RD@<lambda_1>@?0??_Estimate_required_capacity@?$basic_format_args@V?$basic_format_context@V?$back_insert_iterator@V?$_Fmt_buffer@D@std@@@std@@D@std@@@std@@QEBA_KXZ@QEBA?A?<auto>@@D@Z"
.seh_proc "??$?RD@<lambda_1>@?0??_Estimate_required_capacity@?$basic_format_args@V?$basic_format_context@V?$back_insert_iterator@V?$_Fmt_buffer@D@std@@@std@@D@std@@@std@@QEBA_KXZ@QEBA?A?<auto>@@D@Z"
# %bb.0:
	sub	rsp, 16
	.seh_stackalloc 16
	.seh_endprologue
	mov	byte ptr [rsp + 15], dl
	mov	qword ptr [rsp], rcx
	mov	rax, qword ptr [rsp]
	mov	rax, qword ptr [rax]
	mov	rcx, qword ptr [rax]
	add	rcx, 8
	mov	qword ptr [rax], rcx
	add	rsp, 16
	ret
	.seh_endproc
                                        # -- End function
	.def	"??$?RM@<lambda_1>@?0??_Estimate_required_capacity@?$basic_format_args@V?$basic_format_context@V?$back_insert_iterator@V?$_Fmt_buffer@D@std@@@std@@D@std@@@std@@QEBA_KXZ@QEBA?A?<auto>@@M@Z";
	.scl	2;
	.type	32;
	.endef
	.section	.text,"xr",discard,"??$?RM@<lambda_1>@?0??_Estimate_required_capacity@?$basic_format_args@V?$basic_format_context@V?$back_insert_iterator@V?$_Fmt_buffer@D@std@@@std@@D@std@@@std@@QEBA_KXZ@QEBA?A?<auto>@@M@Z"
	.globl	"??$?RM@<lambda_1>@?0??_Estimate_required_capacity@?$basic_format_args@V?$basic_format_context@V?$back_insert_iterator@V?$_Fmt_buffer@D@std@@@std@@D@std@@@std@@QEBA_KXZ@QEBA?A?<auto>@@M@Z" # -- Begin function ??$?RM@<lambda_1>@?0??_Estimate_required_capacity@?$basic_format_args@V?$basic_format_context@V?$back_insert_iterator@V?$_Fmt_buffer@D@std@@@std@@D@std@@@std@@QEBA_KXZ@QEBA?A?<auto>@@M@Z
	.p2align	4, 0x90
"??$?RM@<lambda_1>@?0??_Estimate_required_capacity@?$basic_format_args@V?$basic_format_context@V?$back_insert_iterator@V?$_Fmt_buffer@D@std@@@std@@D@std@@@std@@QEBA_KXZ@QEBA?A?<auto>@@M@Z": # @"??$?RM@<lambda_1>@?0??_Estimate_required_capacity@?$basic_format_args@V?$basic_format_context@V?$back_insert_iterator@V?$_Fmt_buffer@D@std@@@std@@D@std@@@std@@QEBA_KXZ@QEBA?A?<auto>@@M@Z"
.seh_proc "??$?RM@<lambda_1>@?0??_Estimate_required_capacity@?$basic_format_args@V?$basic_format_context@V?$back_insert_iterator@V?$_Fmt_buffer@D@std@@@std@@D@std@@@std@@QEBA_KXZ@QEBA?A?<auto>@@M@Z"
# %bb.0:
	sub	rsp, 16
	.seh_stackalloc 16
	.seh_endprologue
	movss	dword ptr [rsp + 12], xmm1
	mov	qword ptr [rsp], rcx
	mov	rax, qword ptr [rsp]
	mov	rax, qword ptr [rax]
	mov	rcx, qword ptr [rax]
	add	rcx, 8
	mov	qword ptr [rax], rcx
	add	rsp, 16
	ret
	.seh_endproc
                                        # -- End function
	.def	"??$?RN@<lambda_1>@?0??_Estimate_required_capacity@?$basic_format_args@V?$basic_format_context@V?$back_insert_iterator@V?$_Fmt_buffer@D@std@@@std@@D@std@@@std@@QEBA_KXZ@QEBA?A?<auto>@@N@Z";
	.scl	2;
	.type	32;
	.endef
	.section	.text,"xr",discard,"??$?RN@<lambda_1>@?0??_Estimate_required_capacity@?$basic_format_args@V?$basic_format_context@V?$back_insert_iterator@V?$_Fmt_buffer@D@std@@@std@@D@std@@@std@@QEBA_KXZ@QEBA?A?<auto>@@N@Z"
	.globl	"??$?RN@<lambda_1>@?0??_Estimate_required_capacity@?$basic_format_args@V?$basic_format_context@V?$back_insert_iterator@V?$_Fmt_buffer@D@std@@@std@@D@std@@@std@@QEBA_KXZ@QEBA?A?<auto>@@N@Z" # -- Begin function ??$?RN@<lambda_1>@?0??_Estimate_required_capacity@?$basic_format_args@V?$basic_format_context@V?$back_insert_iterator@V?$_Fmt_buffer@D@std@@@std@@D@std@@@std@@QEBA_KXZ@QEBA?A?<auto>@@N@Z
	.p2align	4, 0x90
"??$?RN@<lambda_1>@?0??_Estimate_required_capacity@?$basic_format_args@V?$basic_format_context@V?$back_insert_iterator@V?$_Fmt_buffer@D@std@@@std@@D@std@@@std@@QEBA_KXZ@QEBA?A?<auto>@@N@Z": # @"??$?RN@<lambda_1>@?0??_Estimate_required_capacity@?$basic_format_args@V?$basic_format_context@V?$back_insert_iterator@V?$_Fmt_buffer@D@std@@@std@@D@std@@@std@@QEBA_KXZ@QEBA?A?<auto>@@N@Z"
.seh_proc "??$?RN@<lambda_1>@?0??_Estimate_required_capacity@?$basic_format_args@V?$basic_format_context@V?$back_insert_iterator@V?$_Fmt_buffer@D@std@@@std@@D@std@@@std@@QEBA_KXZ@QEBA?A?<auto>@@N@Z"
# %bb.0:
	sub	rsp, 16
	.seh_stackalloc 16
	.seh_endprologue
	movsd	qword ptr [rsp + 8], xmm1
	mov	qword ptr [rsp], rcx
	mov	rax, qword ptr [rsp]
	mov	rax, qword ptr [rax]
	mov	rcx, qword ptr [rax]
	add	rcx, 8
	mov	qword ptr [rax], rcx
	add	rsp, 16
	ret
	.seh_endproc
                                        # -- End function
	.def	"??$?RO@<lambda_1>@?0??_Estimate_required_capacity@?$basic_format_args@V?$basic_format_context@V?$back_insert_iterator@V?$_Fmt_buffer@D@std@@@std@@D@std@@@std@@QEBA_KXZ@QEBA?A?<auto>@@O@Z";
	.scl	2;
	.type	32;
	.endef
	.section	.text,"xr",discard,"??$?RO@<lambda_1>@?0??_Estimate_required_capacity@?$basic_format_args@V?$basic_format_context@V?$back_insert_iterator@V?$_Fmt_buffer@D@std@@@std@@D@std@@@std@@QEBA_KXZ@QEBA?A?<auto>@@O@Z"
	.globl	"??$?RO@<lambda_1>@?0??_Estimate_required_capacity@?$basic_format_args@V?$basic_format_context@V?$back_insert_iterator@V?$_Fmt_buffer@D@std@@@std@@D@std@@@std@@QEBA_KXZ@QEBA?A?<auto>@@O@Z" # -- Begin function ??$?RO@<lambda_1>@?0??_Estimate_required_capacity@?$basic_format_args@V?$basic_format_context@V?$back_insert_iterator@V?$_Fmt_buffer@D@std@@@std@@D@std@@@std@@QEBA_KXZ@QEBA?A?<auto>@@O@Z
	.p2align	4, 0x90
"??$?RO@<lambda_1>@?0??_Estimate_required_capacity@?$basic_format_args@V?$basic_format_context@V?$back_insert_iterator@V?$_Fmt_buffer@D@std@@@std@@D@std@@@std@@QEBA_KXZ@QEBA?A?<auto>@@O@Z": # @"??$?RO@<lambda_1>@?0??_Estimate_required_capacity@?$basic_format_args@V?$basic_format_context@V?$back_insert_iterator@V?$_Fmt_buffer@D@std@@@std@@D@std@@@std@@QEBA_KXZ@QEBA?A?<auto>@@O@Z"
.seh_proc "??$?RO@<lambda_1>@?0??_Estimate_required_capacity@?$basic_format_args@V?$basic_format_context@V?$back_insert_iterator@V?$_Fmt_buffer@D@std@@@std@@D@std@@@std@@QEBA_KXZ@QEBA?A?<auto>@@O@Z"
# %bb.0:
	sub	rsp, 16
	.seh_stackalloc 16
	.seh_endprologue
	movsd	qword ptr [rsp + 8], xmm1
	mov	qword ptr [rsp], rcx
	mov	rax, qword ptr [rsp]
	mov	rax, qword ptr [rax]
	mov	rcx, qword ptr [rax]
	add	rcx, 8
	mov	qword ptr [rax], rcx
	add	rsp, 16
	ret
	.seh_endproc
                                        # -- End function
	.def	"??$?RPEBX@<lambda_1>@?0??_Estimate_required_capacity@?$basic_format_args@V?$basic_format_context@V?$back_insert_iterator@V?$_Fmt_buffer@D@std@@@std@@D@std@@@std@@QEBA_KXZ@QEBA?A?<auto>@@QEBX@Z";
	.scl	2;
	.type	32;
	.endef
	.section	.text,"xr",discard,"??$?RPEBX@<lambda_1>@?0??_Estimate_required_capacity@?$basic_format_args@V?$basic_format_context@V?$back_insert_iterator@V?$_Fmt_buffer@D@std@@@std@@D@std@@@std@@QEBA_KXZ@QEBA?A?<auto>@@QEBX@Z"
	.globl	"??$?RPEBX@<lambda_1>@?0??_Estimate_required_capacity@?$basic_format_args@V?$basic_format_context@V?$back_insert_iterator@V?$_Fmt_buffer@D@std@@@std@@D@std@@@std@@QEBA_KXZ@QEBA?A?<auto>@@QEBX@Z" # -- Begin function ??$?RPEBX@<lambda_1>@?0??_Estimate_required_capacity@?$basic_format_args@V?$basic_format_context@V?$back_insert_iterator@V?$_Fmt_buffer@D@std@@@std@@D@std@@@std@@QEBA_KXZ@QEBA?A?<auto>@@QEBX@Z
	.p2align	4, 0x90
"??$?RPEBX@<lambda_1>@?0??_Estimate_required_capacity@?$basic_format_args@V?$basic_format_context@V?$back_insert_iterator@V?$_Fmt_buffer@D@std@@@std@@D@std@@@std@@QEBA_KXZ@QEBA?A?<auto>@@QEBX@Z": # @"??$?RPEBX@<lambda_1>@?0??_Estimate_required_capacity@?$basic_format_args@V?$basic_format_context@V?$back_insert_iterator@V?$_Fmt_buffer@D@std@@@std@@D@std@@@std@@QEBA_KXZ@QEBA?A?<auto>@@QEBX@Z"
.seh_proc "??$?RPEBX@<lambda_1>@?0??_Estimate_required_capacity@?$basic_format_args@V?$basic_format_context@V?$back_insert_iterator@V?$_Fmt_buffer@D@std@@@std@@D@std@@@std@@QEBA_KXZ@QEBA?A?<auto>@@QEBX@Z"
# %bb.0:
	sub	rsp, 16
	.seh_stackalloc 16
	.seh_endprologue
	mov	qword ptr [rsp + 8], rdx
	mov	qword ptr [rsp], rcx
	mov	rax, qword ptr [rsp]
	mov	rax, qword ptr [rax]
	mov	rcx, qword ptr [rax]
	add	rcx, 8
	mov	qword ptr [rax], rcx
	add	rsp, 16
	ret
	.seh_endproc
                                        # -- End function
	.def	"??$?RPEBD@<lambda_1>@?0??_Estimate_required_capacity@?$basic_format_args@V?$basic_format_context@V?$back_insert_iterator@V?$_Fmt_buffer@D@std@@@std@@D@std@@@std@@QEBA_KXZ@QEBA?A?<auto>@@QEBD@Z";
	.scl	2;
	.type	32;
	.endef
	.section	.text,"xr",discard,"??$?RPEBD@<lambda_1>@?0??_Estimate_required_capacity@?$basic_format_args@V?$basic_format_context@V?$back_insert_iterator@V?$_Fmt_buffer@D@std@@@std@@D@std@@@std@@QEBA_KXZ@QEBA?A?<auto>@@QEBD@Z"
	.globl	"??$?RPEBD@<lambda_1>@?0??_Estimate_required_capacity@?$basic_format_args@V?$basic_format_context@V?$back_insert_iterator@V?$_Fmt_buffer@D@std@@@std@@D@std@@@std@@QEBA_KXZ@QEBA?A?<auto>@@QEBD@Z" # -- Begin function ??$?RPEBD@<lambda_1>@?0??_Estimate_required_capacity@?$basic_format_args@V?$basic_format_context@V?$back_insert_iterator@V?$_Fmt_buffer@D@std@@@std@@D@std@@@std@@QEBA_KXZ@QEBA?A?<auto>@@QEBD@Z
	.p2align	4, 0x90
"??$?RPEBD@<lambda_1>@?0??_Estimate_required_capacity@?$basic_format_args@V?$basic_format_context@V?$back_insert_iterator@V?$_Fmt_buffer@D@std@@@std@@D@std@@@std@@QEBA_KXZ@QEBA?A?<auto>@@QEBD@Z": # @"??$?RPEBD@<lambda_1>@?0??_Estimate_required_capacity@?$basic_format_args@V?$basic_format_context@V?$back_insert_iterator@V?$_Fmt_buffer@D@std@@@std@@D@std@@@std@@QEBA_KXZ@QEBA?A?<auto>@@QEBD@Z"
.seh_proc "??$?RPEBD@<lambda_1>@?0??_Estimate_required_capacity@?$basic_format_args@V?$basic_format_context@V?$back_insert_iterator@V?$_Fmt_buffer@D@std@@@std@@D@std@@@std@@QEBA_KXZ@QEBA?A?<auto>@@QEBD@Z"
# %bb.0:
	sub	rsp, 16
	.seh_stackalloc 16
	.seh_endprologue
	mov	qword ptr [rsp + 8], rdx
	mov	qword ptr [rsp], rcx
	mov	rax, qword ptr [rsp]
	mov	rax, qword ptr [rax]
	mov	rcx, qword ptr [rax]
	add	rcx, 32
	mov	qword ptr [rax], rcx
	add	rsp, 16
	ret
	.seh_endproc
                                        # -- End function
	.def	"??$?RV?$basic_string_view@DU?$char_traits@D@std@@@std@@@<lambda_1>@?0??_Estimate_required_capacity@?$basic_format_args@V?$basic_format_context@V?$back_insert_iterator@V?$_Fmt_buffer@D@std@@@std@@D@std@@@std@@QEBA_KXZ@QEBA?A?<auto>@@V?$basic_string_view@DU?$char_traits@D@std@@@3@@Z";
	.scl	2;
	.type	32;
	.endef
	.section	.text,"xr",discard,"??$?RV?$basic_string_view@DU?$char_traits@D@std@@@std@@@<lambda_1>@?0??_Estimate_required_capacity@?$basic_format_args@V?$basic_format_context@V?$back_insert_iterator@V?$_Fmt_buffer@D@std@@@std@@D@std@@@std@@QEBA_KXZ@QEBA?A?<auto>@@V?$basic_string_view@DU?$char_traits@D@std@@@3@@Z"
	.globl	"??$?RV?$basic_string_view@DU?$char_traits@D@std@@@std@@@<lambda_1>@?0??_Estimate_required_capacity@?$basic_format_args@V?$basic_format_context@V?$back_insert_iterator@V?$_Fmt_buffer@D@std@@@std@@D@std@@@std@@QEBA_KXZ@QEBA?A?<auto>@@V?$basic_string_view@DU?$char_traits@D@std@@@3@@Z" # -- Begin function ??$?RV?$basic_string_view@DU?$char_traits@D@std@@@std@@@<lambda_1>@?0??_Estimate_required_capacity@?$basic_format_args@V?$basic_format_context@V?$back_insert_iterator@V?$_Fmt_buffer@D@std@@@std@@D@std@@@std@@QEBA_KXZ@QEBA?A?<auto>@@V?$basic_string_view@DU?$char_traits@D@std@@@3@@Z
	.p2align	4, 0x90
"??$?RV?$basic_string_view@DU?$char_traits@D@std@@@std@@@<lambda_1>@?0??_Estimate_required_capacity@?$basic_format_args@V?$basic_format_context@V?$back_insert_iterator@V?$_Fmt_buffer@D@std@@@std@@D@std@@@std@@QEBA_KXZ@QEBA?A?<auto>@@V?$basic_string_view@DU?$char_traits@D@std@@@3@@Z": # @"??$?RV?$basic_string_view@DU?$char_traits@D@std@@@std@@@<lambda_1>@?0??_Estimate_required_capacity@?$basic_format_args@V?$basic_format_context@V?$back_insert_iterator@V?$_Fmt_buffer@D@std@@@std@@D@std@@@std@@QEBA_KXZ@QEBA?A?<auto>@@V?$basic_string_view@DU?$char_traits@D@std@@@3@@Z"
.seh_proc "??$?RV?$basic_string_view@DU?$char_traits@D@std@@@std@@@<lambda_1>@?0??_Estimate_required_capacity@?$basic_format_args@V?$basic_format_context@V?$back_insert_iterator@V?$_Fmt_buffer@D@std@@@std@@D@std@@@std@@QEBA_KXZ@QEBA?A?<auto>@@V?$basic_string_view@DU?$char_traits@D@std@@@3@@Z"
# %bb.0:
	sub	rsp, 56
	.seh_stackalloc 56
	.seh_endprologue
	mov	qword ptr [rsp + 32], rdx       # 8-byte Spill
	mov	rax, rcx
	mov	rcx, qword ptr [rsp + 32]       # 8-byte Reload
	mov	qword ptr [rsp + 48], rax
	mov	rax, qword ptr [rsp + 48]
	mov	qword ptr [rsp + 40], rax       # 8-byte Spill
	call	"?size@?$basic_string_view@DU?$char_traits@D@std@@@std@@QEBA_KXZ"
	mov	rcx, rax
	mov	rax, qword ptr [rsp + 40]       # 8-byte Reload
	mov	rax, qword ptr [rax]
	add	rcx, qword ptr [rax]
	mov	qword ptr [rax], rcx
	add	rsp, 56
	ret
	.seh_endproc
                                        # -- End function
	.def	"??$?RVhandle@?$basic_format_arg@V?$basic_format_context@V?$back_insert_iterator@V?$_Fmt_buffer@D@std@@@std@@D@std@@@std@@@<lambda_1>@?0??_Estimate_required_capacity@?$basic_format_args@V?$basic_format_context@V?$back_insert_iterator@V?$_Fmt_buffer@D@std@@@std@@D@std@@@std@@QEBA_KXZ@QEBA?A?<auto>@@Vhandle@?$basic_format_arg@V?$basic_format_context@V?$back_insert_iterator@V?$_Fmt_buffer@D@std@@@std@@D@std@@@3@@Z";
	.scl	2;
	.type	32;
	.endef
	.section	.text,"xr",discard,"??$?RVhandle@?$basic_format_arg@V?$basic_format_context@V?$back_insert_iterator@V?$_Fmt_buffer@D@std@@@std@@D@std@@@std@@@<lambda_1>@?0??_Estimate_required_capacity@?$basic_format_args@V?$basic_format_context@V?$back_insert_iterator@V?$_Fmt_buffer@D@std@@@std@@D@std@@@std@@QEBA_KXZ@QEBA?A?<auto>@@Vhandle@?$basic_format_arg@V?$basic_format_context@V?$back_insert_iterator@V?$_Fmt_buffer@D@std@@@std@@D@std@@@3@@Z"
	.globl	"??$?RVhandle@?$basic_format_arg@V?$basic_format_context@V?$back_insert_iterator@V?$_Fmt_buffer@D@std@@@std@@D@std@@@std@@@<lambda_1>@?0??_Estimate_required_capacity@?$basic_format_args@V?$basic_format_context@V?$back_insert_iterator@V?$_Fmt_buffer@D@std@@@std@@D@std@@@std@@QEBA_KXZ@QEBA?A?<auto>@@Vhandle@?$basic_format_arg@V?$basic_format_context@V?$back_insert_iterator@V?$_Fmt_buffer@D@std@@@std@@D@std@@@3@@Z" # -- Begin function ??$?RVhandle@?$basic_format_arg@V?$basic_format_context@V?$back_insert_iterator@V?$_Fmt_buffer@D@std@@@std@@D@std@@@std@@@<lambda_1>@?0??_Estimate_required_capacity@?$basic_format_args@V?$basic_format_context@V?$back_insert_iterator@V?$_Fmt_buffer@D@std@@@std@@D@std@@@std@@QEBA_KXZ@QEBA?A?<auto>@@Vhandle@?$basic_format_arg@V?$basic_format_context@V?$back_insert_iterator@V?$_Fmt_buffer@D@std@@@std@@D@std@@@3@@Z
	.p2align	4, 0x90
"??$?RVhandle@?$basic_format_arg@V?$basic_format_context@V?$back_insert_iterator@V?$_Fmt_buffer@D@std@@@std@@D@std@@@std@@@<lambda_1>@?0??_Estimate_required_capacity@?$basic_format_args@V?$basic_format_context@V?$back_insert_iterator@V?$_Fmt_buffer@D@std@@@std@@D@std@@@std@@QEBA_KXZ@QEBA?A?<auto>@@Vhandle@?$basic_format_arg@V?$basic_format_context@V?$back_insert_iterator@V?$_Fmt_buffer@D@std@@@std@@D@std@@@3@@Z": # @"??$?RVhandle@?$basic_format_arg@V?$basic_format_context@V?$back_insert_iterator@V?$_Fmt_buffer@D@std@@@std@@D@std@@@std@@@<lambda_1>@?0??_Estimate_required_capacity@?$basic_format_args@V?$basic_format_context@V?$back_insert_iterator@V?$_Fmt_buffer@D@std@@@std@@D@std@@@std@@QEBA_KXZ@QEBA?A?<auto>@@Vhandle@?$basic_format_arg@V?$basic_format_context@V?$back_insert_iterator@V?$_Fmt_buffer@D@std@@@std@@D@std@@@3@@Z"
.seh_proc "??$?RVhandle@?$basic_format_arg@V?$basic_format_context@V?$back_insert_iterator@V?$_Fmt_buffer@D@std@@@std@@D@std@@@std@@@<lambda_1>@?0??_Estimate_required_capacity@?$basic_format_args@V?$basic_format_context@V?$back_insert_iterator@V?$_Fmt_buffer@D@std@@@std@@D@std@@@std@@QEBA_KXZ@QEBA?A?<auto>@@Vhandle@?$basic_format_arg@V?$basic_format_context@V?$back_insert_iterator@V?$_Fmt_buffer@D@std@@@std@@D@std@@@3@@Z"
# %bb.0:
	push	rax
	.seh_stackalloc 8
	.seh_endprologue
	mov	qword ptr [rsp], rcx
	mov	rax, qword ptr [rsp]
	mov	rax, qword ptr [rax]
	mov	rcx, qword ptr [rax]
	add	rcx, 8
	mov	qword ptr [rax], rcx
	pop	rax
	ret
	.seh_endproc
                                        # -- End function
	.def	"??0?$basic_format_arg@V?$basic_format_context@V?$back_insert_iterator@V?$_Fmt_buffer@D@std@@@std@@D@std@@@std@@QEAA@XZ";
	.scl	2;
	.type	32;
	.endef
	.section	.text,"xr",discard,"??0?$basic_format_arg@V?$basic_format_context@V?$back_insert_iterator@V?$_Fmt_buffer@D@std@@@std@@D@std@@@std@@QEAA@XZ"
	.globl	"??0?$basic_format_arg@V?$basic_format_context@V?$back_insert_iterator@V?$_Fmt_buffer@D@std@@@std@@D@std@@@std@@QEAA@XZ" # -- Begin function ??0?$basic_format_arg@V?$basic_format_context@V?$back_insert_iterator@V?$_Fmt_buffer@D@std@@@std@@D@std@@@std@@QEAA@XZ
	.p2align	4, 0x90
"??0?$basic_format_arg@V?$basic_format_context@V?$back_insert_iterator@V?$_Fmt_buffer@D@std@@@std@@D@std@@@std@@QEAA@XZ": # @"??0?$basic_format_arg@V?$basic_format_context@V?$back_insert_iterator@V?$_Fmt_buffer@D@std@@@std@@D@std@@@std@@QEAA@XZ"
.seh_proc "??0?$basic_format_arg@V?$basic_format_context@V?$back_insert_iterator@V?$_Fmt_buffer@D@std@@@std@@D@std@@@std@@QEAA@XZ"
# %bb.0:
	push	rax
	.seh_stackalloc 8
	.seh_endprologue
	mov	qword ptr [rsp], rcx
	mov	rax, qword ptr [rsp]
	mov	byte ptr [rax], 0
	pop	rcx
	ret
	.seh_endproc
                                        # -- End function
	.def	"?_Type@_Format_arg_index@std@@QEBA?AW4_Basic_format_arg_type@2@XZ";
	.scl	2;
	.type	32;
	.endef
	.section	.text,"xr",discard,"?_Type@_Format_arg_index@std@@QEBA?AW4_Basic_format_arg_type@2@XZ"
